

HI-TECH Software PIC LITE Macro Assembler V1.00 build 12136 
                                                                                               Wed Jun 27 12:57:00 2012

HI-TECH Software Omniscient Code Generator (Lite mode) build 12136
     1  0000                     opt subtitle "HI-TECH Software Omniscient Code Generator (Lite mode) build 12136"
     2                           
     3                           opt pagewidth 120
     4                           
     5                           	opt lm
     6                           
     7                           	processor	16F876A
     8                           clrc	macro
     9                           	bcf	3,0
    10  0000                     	endm
    11                           clrz	macro
    12                           	bcf	3,2
    13  0000                     	endm
    14                           setc	macro
    15                           	bsf	3,0
    16  0000                     	endm
    17                           setz	macro
    18                           	bsf	3,2
    19  0000                     	endm
    20                           skipc	macro
    21                           	btfss	3,0
    22  0000                     	endm
    23                           skipz	macro
    24                           	btfss	3,2
    25  0000                     	endm
    26                           skipnc	macro
    27                           	btfsc	3,0
    28  0000                     	endm
    29                           skipnz	macro
    30                           	btfsc	3,2
    31  0000                     	endm
    32  0000                     indf	equ	0
    33  0000                     indf0	equ	0
    34  0002                     pc	equ	2
    35  0002                     pcl	equ	2
    36  0003                     status	equ	3
    37  0004                     fsr	equ	4
    38  0004                     fsr0	equ	4
    39  0001                     c	equ	1
    40  0000                     z	equ	0
    41  000A                     pclath	equ	10
    42                           # 13 "PR18.c"
    43                           psect config,class=CONFIG,delta=2 ;# 
    44                           # 13 "PR18.c"
    45  2007  3F32               dw 0x3F32 ;# 
    46                           	FNCALL	_main,_send_config
    47                           	FNCALL	_main,_lcd_clr
    48                           	FNCALL	_main,_lcd_goto
    49                           	FNCALL	_main,_send_string
    50                           	FNCALL	_main,_send_cmd
    51                           	FNCALL	_main,_delay
    52                           	FNCALL	_main,_mode1
    53                           	FNCALL	_main,_mode2
    54                           	FNCALL	_mode1,_lcd_goto
    55                           	FNCALL	_mode1,_send_char
    56                           	FNCALL	_mode1,_send_string
    57                           	FNCALL	_mode1,_delay
    58                           	FNCALL	_mode1,_send_cmd
    59                           	FNCALL	_mode2,_lcd_clr
    60                           	FNCALL	_mode2,_lcd_goto
    61                           	FNCALL	_mode2,_send_string
    62                           	FNCALL	_mode2,_send_char
    63                           	FNCALL	_mode2,___awdiv
    64                           	FNCALL	_mode2,___awmod
    65                           	FNCALL	_mode2,_delay
    66                           	FNCALL	_mode2,_send_cmd
    67                           	FNCALL	_lcd_clr,_send_config
    68                           	FNCALL	_lcd_clr,_delay
    69                           	FNCALL	_lcd_goto,_send_config
    70                           	FNCALL	_send_config,_delay
    71                           	FNCALL	_send_string,_send_char
    72                           	FNCALL	_send_cmd,_uart_send
    73                           	FNCALL	_send_char,_delay
    74                           	FNROOT	_main
    75                           	global	_mode
    76                           	global	_CCP1CON
    77  0017                     _CCP1CON	set	0x17
    78                           	global	_CCP2CON
    79  001D                     _CCP2CON	set	0x1D
    80                           	global	_CCPR1L
    81  0015                     _CCPR1L	set	0x15
    82                           	global	_CCPR2L
    83  001B                     _CCPR2L	set	0x1B
    84                           	global	_PORTB
    85  0006                     _PORTB	set	0x6
    86                           	global	_T2CON
    87  0012                     _T2CON	set	0x12
    88                           	global	_TXREG
    89  0019                     _TXREG	set	0x19
    90                           	global	_CREN
    91  00C4                     _CREN	set	0xC4
    92                           	global	_RA0
    93  0028                     _RA0	set	0x28
    94                           	global	_RA1
    95  0029                     _RA1	set	0x29
    96                           	global	_RA2
    97  002A                     _RA2	set	0x2A
    98                           	global	_RC3
    99  003B                     _RC3	set	0x3B
   100                           	global	_RC4
   101  003C                     _RC4	set	0x3C
   102                           	global	_RC5
   103  003D                     _RC5	set	0x3D
   104                           	global	_SPEN
   105  00C7                     _SPEN	set	0xC7
   106                           	global	_TXIF
   107  0064                     _TXIF	set	0x64
   108                           	global	_ADCON1
   109  009F                     _ADCON1	set	0x9F
   110                           	global	_PR2
   111  0092                     _PR2	set	0x92
   112                           	global	_SPBRG
   113  0099                     _SPBRG	set	0x99
   114                           	global	_TRISA
   115  0085                     _TRISA	set	0x85
   116                           	global	_TRISB
   117  0086                     _TRISB	set	0x86
   118                           	global	_TRISC
   119  0087                     _TRISC	set	0x87
   120                           	global	_BRGH
   121  04C2                     _BRGH	set	0x4C2
   122                           	global	_TXEN
   123  04C5                     _TXEN	set	0x4C5
   124                           psect	strings,class=STRING,delta=2
   125                           global __pstrings
   126  0003                     __pstrings:
   127                           ;	global	stringdir,stringtab,__stringbase
   128  0003                     stringtab:
   129                           ;	String table - string pointers are 1 byte each
   130  0003                     stringcode:stringdir:
      + 0003                     stringdir:	
   131  0003  3000               movlw high(stringdir)
   132  0004  008A               movwf pclath
   133  0005  0804               movf fsr,w
   134  0006  0A84               incf fsr
   135  0007  0782               	addwf pc
   136  0008                     __stringbase:
   137  0008  3400               	retlw	0
   138                           psect	strings
   139                           	
   140  0009                     STR_5:	
   141  0009  3443               	retlw	67	;'C'
   142  000A  3461               	retlw	97	;'a'
   143  000B  346C               	retlw	108	;'l'
   144  000C  3469               	retlw	105	;'i'
   145  000D  3462               	retlw	98	;'b'
   146  000E  3472               	retlw	114	;'r'
   147  000F  3461               	retlw	97	;'a'
   148  0010  3474               	retlw	116	;'t'
   149  0011  3469               	retlw	105	;'i'
   150  0012  346F               	retlw	111	;'o'
   151  0013  346E               	retlw	110	;'n'
   152  0014  343F               	retlw	63	;'?'
   153  0015  3420               	retlw	32	;' '
   154  0016  3420               	retlw	32	;' '
   155  0017  3400               	retlw	0
   156                           psect	strings
   157                           	
   158  0018                     STR_4:	
   159  0018  3442               	retlw	66	;'B'
   160  0019  3469               	retlw	105	;'i'
   161  001A  3470               	retlw	112	;'p'
   162  001B  3465               	retlw	101	;'e'
   163  001C  3464               	retlw	100	;'d'
   164  001D  3420               	retlw	32	;' '
   165  001E  3457               	retlw	87	;'W'
   166  001F  3461               	retlw	97	;'a'
   167  0020  346C               	retlw	108	;'l'
   168  0021  346B               	retlw	107	;'k'
   169  0022  3469               	retlw	105	;'i'
   170  0023  346E               	retlw	110	;'n'
   171  0024  3467               	retlw	103	;'g'
   172  0025  343F               	retlw	63	;'?'
   173  0026  3400               	retlw	0
   174                           psect	strings
   175                           	
   176  0027                     STR_1:	
   177  0027  3443               	retlw	67	;'C'
   178  0028  3479               	retlw	121	;'y'
   179  0029  3474               	retlw	116	;'t'
   180  002A  3472               	retlw	114	;'r'
   181  002B  346F               	retlw	111	;'o'
   182  002C  346E               	retlw	110	;'n'
   183  002D  3420               	retlw	32	;' '
   184  002E  3454               	retlw	84	;'T'
   185  002F  3465               	retlw	101	;'e'
   186  0030  3463               	retlw	99	;'c'
   187  0031  3468               	retlw	104	;'h'
   188  0032  342E               	retlw	46	;'.'
   189  0033  3400               	retlw	0
   190                           psect	strings
   191                           	
   192  0034                     STR_7:	
   193  0034  3443               	retlw	67	;'C'
   194  0035  3468               	retlw	104	;'h'
   195  0036  3461               	retlw	97	;'a'
   196  0037  346E               	retlw	110	;'n'
   197  0038  346E               	retlw	110	;'n'
   198  0039  3465               	retlw	101	;'e'
   199  003A  346C               	retlw	108	;'l'
   200  003B  343A               	retlw	58	;':'
   201  003C  3400               	retlw	0
   202                           psect	strings
   203                           	
   204  003D                     STR_9:	
   205  003D  3456               	retlw	86	;'V'
   206  003E  3461               	retlw	97	;'a'
   207  003F  346C               	retlw	108	;'l'
   208  0040  3475               	retlw	117	;'u'
   209  0041  3465               	retlw	101	;'e'
   210  0042  343A               	retlw	58	;':'
   211  0043  3420               	retlw	32	;' '
   212  0044  3400               	retlw	0
   213                           psect	strings
   214                           	
   215  0045                     STR_2:	
   216  0045  3450               	retlw	80	;'P'
   217  0046  3452               	retlw	82	;'R'
   218  0047  3431               	retlw	49	;'1'
   219  0048  3438               	retlw	56	;'8'
   220  0049  3400               	retlw	0
   221                           psect	strings
   222                           	
   223  004A                     STR_3:	
   224  004A  344F               	retlw	79	;'O'
   225  004B  344B               	retlw	75	;'K'
   226  004C  3400               	retlw	0
   227                           psect	strings
   228  004A                     STR_8	equ	STR_3+0
   229  0015                     STR_6	equ	STR_5+12
   230                           	file	"C:\Users\HATAKE~1\AppData\Local\Temp\s1gro."
   231                           	line	#
   232                           psect cinit,class=CODE,delta=2
   233                           global start_initialization
   234  0FB5                     start_initialization:
   235                           
   236                           psect	bssBANK0,class=BANK0,space=1
   237                           global __pbssBANK0
   238  002A                     __pbssBANK0:
   239  002A                     _mode:
   240  002A                            ds      1
   241                           
   242                           ; Clear objects allocated to BANK0
   243                           psect cinit,class=CODE,delta=2,merge=1
   244  0FB5  01AA               	clrf	((__pbssBANK0)+0)&07Fh
   245                           psect cinit,class=CODE,delta=2,merge=1
   246                           global end_of_initialization
   247                           
   248                           ;End of C runtime variable initialization code
   249                           
   250  0FB6                     end_of_initialization:
   251  0FB6  0183               clrf status
   252  0FB7  120A  118A  29F5   ljmp _main	;jump to C main() function
   253                           psect	cstackCOMMON,class=COMMON,space=1
   254                           global __pcstackCOMMON
   255  0070                     __pcstackCOMMON:
   256                           	global	?_send_config
   257  0070                     ?_send_config:	; 0 bytes @ 0x0
   258                           	global	?_lcd_clr
   259  0070                     ?_lcd_clr:	; 0 bytes @ 0x0
   260                           	global	?_lcd_goto
   261  0070                     ?_lcd_goto:	; 0 bytes @ 0x0
   262                           	global	?_send_string
   263  0070                     ?_send_string:	; 0 bytes @ 0x0
   264                           	global	?_delay
   265  0070                     ?_delay:	; 0 bytes @ 0x0
   266                           	global	?_mode1
   267  0070                     ?_mode1:	; 0 bytes @ 0x0
   268                           	global	?_mode2
   269  0070                     ?_mode2:	; 0 bytes @ 0x0
   270                           	global	?_send_char
   271  0070                     ?_send_char:	; 0 bytes @ 0x0
   272                           	global	?_main
   273  0070                     ?_main:	; 0 bytes @ 0x0
   274                           	global	?_uart_send
   275  0070                     ?_uart_send:	; 0 bytes @ 0x0
   276                           	global	??_uart_send
   277  0070                     ??_uart_send:	; 0 bytes @ 0x0
   278                           	global	?___awmod
   279  0070                     ?___awmod:	; 2 bytes @ 0x0
   280                           	global	uart_send@data
   281  0070                     uart_send@data:	; 1 bytes @ 0x0
   282                           	global	___awmod@divisor
   283  0070                     ___awmod@divisor:	; 2 bytes @ 0x0
   284                           	global	delay@data
   285  0070                     delay@data:	; 4 bytes @ 0x0
   286  0070                     	ds	1
   287                           	global	?_send_cmd
   288  0071                     ?_send_cmd:	; 0 bytes @ 0x1
   289                           	global	send_cmd@data
   290  0071                     send_cmd@data:	; 2 bytes @ 0x1
   291  0071                     	ds	1
   292                           	global	___awmod@dividend
   293  0072                     ___awmod@dividend:	; 2 bytes @ 0x2
   294  0072                     	ds	1
   295                           	global	send_cmd@ramp
   296  0073                     send_cmd@ramp:	; 2 bytes @ 0x3
   297  0073                     	ds	1
   298                           	global	??_delay
   299  0074                     ??_delay:	; 0 bytes @ 0x4
   300                           	global	??___awmod
   301  0074                     ??___awmod:	; 0 bytes @ 0x4
   302  0074                     	ds	1
   303                           	global	??_send_cmd
   304  0075                     ??_send_cmd:	; 0 bytes @ 0x5
   305                           	global	___awmod@counter
   306  0075                     ___awmod@counter:	; 1 bytes @ 0x5
   307  0075                     	ds	1
   308                           	global	___awmod@sign
   309  0076                     ___awmod@sign:	; 1 bytes @ 0x6
   310  0076                     	ds	1
   311                           	global	?___awdiv
   312  0077                     ?___awdiv:	; 2 bytes @ 0x7
   313                           	global	___awdiv@divisor
   314  0077                     ___awdiv@divisor:	; 2 bytes @ 0x7
   315  0077                     	ds	1
   316                           	global	??_send_config
   317  0078                     ??_send_config:	; 0 bytes @ 0x8
   318                           	global	??_send_char
   319  0078                     ??_send_char:	; 0 bytes @ 0x8
   320                           	global	send_config@data
   321  0078                     send_config@data:	; 1 bytes @ 0x8
   322                           	global	send_char@data
   323  0078                     send_char@data:	; 1 bytes @ 0x8
   324                           	global	send_cmd@num
   325  0078                     send_cmd@num:	; 1 bytes @ 0x8
   326  0078                     	ds	1
   327                           	global	??_lcd_clr
   328  0079                     ??_lcd_clr:	; 0 bytes @ 0x9
   329                           	global	??_lcd_goto
   330  0079                     ??_lcd_goto:	; 0 bytes @ 0x9
   331                           	global	??_send_string
   332  0079                     ??_send_string:	; 0 bytes @ 0x9
   333                           	global	send_cmd@higher_byte
   334  0079                     send_cmd@higher_byte:	; 1 bytes @ 0x9
   335                           	global	___awdiv@dividend
   336  0079                     ___awdiv@dividend:	; 2 bytes @ 0x9
   337  0079                     	ds	1
   338                           	global	lcd_goto@data
   339  007A                     lcd_goto@data:	; 1 bytes @ 0xA
   340                           	global	send_string@s
   341  007A                     send_string@s:	; 1 bytes @ 0xA
   342                           	global	send_cmd@lower_byte
   343  007A                     send_cmd@lower_byte:	; 1 bytes @ 0xA
   344  007A                     	ds	1
   345                           	global	??_mode1
   346  007B                     ??_mode1:	; 0 bytes @ 0xB
   347                           	global	??___awdiv
   348  007B                     ??___awdiv:	; 0 bytes @ 0xB
   349  007B                     	ds	1
   350                           	global	??_mode2
   351  007C                     ??_mode2:	; 0 bytes @ 0xC
   352  007C                     	ds	2
   353                           psect	cstackBANK0,class=BANK0,space=1
   354                           global __pcstackBANK0
   355  0020                     __pcstackBANK0:
   356                           	global	___awdiv@counter
   357  0020                     ___awdiv@counter:	; 1 bytes @ 0x0
   358  0020                     	ds	1
   359                           	global	___awdiv@sign
   360  0021                     ___awdiv@sign:	; 1 bytes @ 0x1
   361  0021                     	ds	1
   362                           	global	___awdiv@quotient
   363  0022                     ___awdiv@quotient:	; 2 bytes @ 0x2
   364  0022                     	ds	2
   365                           	global	mode2@value
   366  0024                     mode2@value:	; 2 bytes @ 0x4
   367  0024                     	ds	2
   368                           	global	mode2@value_temp
   369  0026                     mode2@value_temp:	; 2 bytes @ 0x6
   370  0026                     	ds	2
   371                           	global	mode2@channel
   372  0028                     mode2@channel:	; 1 bytes @ 0x8
   373  0028                     	ds	1
   374                           	global	??_main
   375  0029                     ??_main:	; 0 bytes @ 0x9
   376  0029                     	ds	1
   377                           ;!
   378                           ;!Data Sizes:
   379                           ;!    Strings     68
   380                           ;!    Constant    0
   381                           ;!    Data        0
   382                           ;!    BSS         1
   383                           ;!    Persistent  0
   384                           ;!    Stack       0
   385                           ;!
   386                           ;!Auto Spaces:
   387                           ;!    Space          Size  Autos    Used
   388                           ;!    COMMON           14     14      14
   389                           ;!    BANK0            80     10      11
   390                           ;!    BANK1            80      0       0
   391                           ;!    BANK3            96      0       0
   392                           ;!    BANK2            96      0       0
   393                           
   394                           ;!
   395                           ;!Pointer List with Targets:
   396                           ;!
   397                           ;!    ?___awmod	int  size(1) Largest target is 0
   398                           ;!
   399                           ;!    ?___awdiv	int  size(1) Largest target is 0
   400                           ;!
   401                           ;!    send_string@s	PTR const unsigned char  size(1) Largest target is 15
   402                           ;!		 -> STR_9(CODE[8]), STR_8(CODE[3]), STR_7(CODE[9]), STR_6(CODE[3]), 
   403                           ;!		 -> STR_5(CODE[15]), STR_4(CODE[15]), STR_3(CODE[3]), STR_2(CODE[5]), 
   404                           ;!		 -> STR_1(CODE[13]), 
   405                           ;!
   406                           
   407                           
   408                           ;!
   409                           ;!Critical Paths under _main in COMMON
   410                           ;!
   411                           ;!    _main->_mode2
   412                           ;!    _mode1->_lcd_goto
   413                           ;!    _mode1->_send_string
   414                           ;!    _mode1->_send_cmd
   415                           ;!    _mode2->___awdiv
   416                           ;!    _lcd_clr->_send_config
   417                           ;!    _lcd_goto->_send_config
   418                           ;!    _send_config->_delay
   419                           ;!    _send_string->_send_char
   420                           ;!    _send_cmd->_uart_send
   421                           ;!    _send_char->_delay
   422                           ;!    ___awdiv->___awmod
   423                           ;!
   424                           ;!Critical Paths under _main in BANK0
   425                           ;!
   426                           ;!    _main->_mode2
   427                           ;!    _mode2->___awdiv
   428                           ;!
   429                           ;!Critical Paths under _main in BANK1
   430                           ;!
   431                           ;!    None.
   432                           ;!
   433                           ;!Critical Paths under _main in BANK3
   434                           ;!
   435                           ;!    None.
   436                           ;!
   437                           ;!Critical Paths under _main in BANK2
   438                           ;!
   439                           ;!    None.
   440                           
   441 ;;
   442 ;;Main: autosize = 0, tempsize = 1, incstack = 0, save=0
   443 ;;
   444                           
   445                           ;!
   446                           ;!Call Graph Tables:
   447                           ;!
   448                           ;! ---------------------------------------------------------------------------------
   449                           ;! (Depth) Function   	        Calls       Base Space   Used Autos Params    Refs
   450                           ;! ---------------------------------------------------------------------------------
   451                           ;! (0) _main                                                 1     1      0    2882
   452                           ;!                                              9 BANK0      1     1      0
   453                           ;!                        _send_config
   454                           ;!                            _lcd_clr
   455                           ;!                           _lcd_goto
   456                           ;!                        _send_string
   457                           ;!                           _send_cmd
   458                           ;!                              _delay
   459                           ;!                              _mode1
   460                           ;!                              _mode2
   461                           ;! ---------------------------------------------------------------------------------
   462                           ;! (1) _mode1                                                0     0      0     560
   463                           ;!                           _lcd_goto
   464                           ;!                          _send_char
   465                           ;!                        _send_string
   466                           ;!                              _delay
   467                           ;!                           _send_cmd
   468                           ;! ---------------------------------------------------------------------------------
   469                           ;! (1) _mode2                                                7     7      0    1650
   470                           ;!                                             12 COMMON     2     2      0
   471                           ;!                                              4 BANK0      5     5      0
   472                           ;!                            _lcd_clr
   473                           ;!                           _lcd_goto
   474                           ;!                        _send_string
   475                           ;!                          _send_char
   476                           ;!                            ___awdiv
   477                           ;!                            ___awmod
   478                           ;!                              _delay
   479                           ;!                           _send_cmd
   480                           ;! ---------------------------------------------------------------------------------
   481                           ;! (2) _lcd_clr                                              0     0      0     112
   482                           ;!                        _send_config
   483                           ;!                              _delay
   484                           ;! ---------------------------------------------------------------------------------
   485                           ;! (2) _lcd_goto                                             2     2      0     156
   486                           ;!                                              9 COMMON     2     2      0
   487                           ;!                        _send_config
   488                           ;! ---------------------------------------------------------------------------------
   489                           ;! (3) _send_config                                          1     1      0      67
   490                           ;!                                              8 COMMON     1     1      0
   491                           ;!                              _delay
   492                           ;! ---------------------------------------------------------------------------------
   493                           ;! (2) _send_string                                          2     2      0     134
   494                           ;!                                              9 COMMON     2     2      0
   495                           ;!                          _send_char
   496                           ;! ---------------------------------------------------------------------------------
   497                           ;! (2) _send_cmd                                            10     6      4     158
   498                           ;!                                              1 COMMON    10     6      4
   499                           ;!                          _uart_send
   500                           ;! ---------------------------------------------------------------------------------
   501                           ;! (2) _send_char                                            1     1      0      67
   502                           ;!                                              8 COMMON     1     1      0
   503                           ;!                              _delay
   504                           ;! ---------------------------------------------------------------------------------
   505                           ;! (2) _delay                                                8     4      4      45
   506                           ;!                                              0 COMMON     8     4      4
   507                           ;! ---------------------------------------------------------------------------------
   508                           ;! (3) _uart_send                                            1     1      0      22
   509                           ;!                                              0 COMMON     1     1      0
   510                           ;! ---------------------------------------------------------------------------------
   511                           ;! (2) ___awdiv                                              9     5      4     300
   512                           ;!                                              7 COMMON     5     1      4
   513                           ;!                                              0 BANK0      4     4      0
   514                           ;!                            ___awmod (ARG)
   515                           ;! ---------------------------------------------------------------------------------
   516                           ;! (2) ___awmod                                              7     3      4     296
   517                           ;!                                              0 COMMON     7     3      4
   518                           ;! ---------------------------------------------------------------------------------
   519                           ;! Estimated maximum stack depth 3
   520                           ;! ---------------------------------------------------------------------------------
   521                           ;!
   522                           ;! Call Graph Graphs:
   523                           ;!
   524                           ;! _main (ROOT)
   525                           ;!   _send_config
   526                           ;!     _delay
   527                           ;!   _lcd_clr
   528                           ;!     _send_config
   529                           ;!       _delay
   530                           ;!     _delay
   531                           ;!   _lcd_goto
   532                           ;!     _send_config
   533                           ;!       _delay
   534                           ;!   _send_string
   535                           ;!     _send_char
   536                           ;!       _delay
   537                           ;!   _send_cmd
   538                           ;!     _uart_send
   539                           ;!   _delay
   540                           ;!   _mode1
   541                           ;!     _lcd_goto
   542                           ;!       _send_config
   543                           ;!         _delay
   544                           ;!     _send_char
   545                           ;!       _delay
   546                           ;!     _send_string
   547                           ;!       _send_char
   548                           ;!         _delay
   549                           ;!     _delay
   550                           ;!     _send_cmd
   551                           ;!       _uart_send
   552                           ;!   _mode2
   553                           ;!     _lcd_clr
   554                           ;!       _send_config
   555                           ;!         _delay
   556                           ;!       _delay
   557                           ;!     _lcd_goto
   558                           ;!       _send_config
   559                           ;!         _delay
   560                           ;!     _send_string
   561                           ;!       _send_char
   562                           ;!         _delay
   563                           ;!     _send_char
   564                           ;!       _delay
   565                           ;!     ___awdiv
   566                           ;!       ___awmod (ARG)
   567                           ;!     ___awmod
   568                           ;!     _delay
   569                           ;!     _send_cmd
   570                           ;!       _uart_send
   571                           ;!
   572                           
   573                           ;! Address spaces:
   574                           
   575                           ;!Name               Size   Autos  Total    Cost      Usage
   576                           ;!BITCOMMON            E      0       0       0        0.0%
   577                           ;!EEDATA             100      0       0       0        0.0%
   578                           ;!NULL                 0      0       0       0        0.0%
   579                           ;!CODE                 0      0       0       0        0.0%
   580                           ;!COMMON               E      E       E       1      100.0%
   581                           ;!BITSFR0              0      0       0       1        0.0%
   582                           ;!SFR0                 0      0       0       1        0.0%
   583                           ;!BITSFR1              0      0       0       2        0.0%
   584                           ;!SFR1                 0      0       0       2        0.0%
   585                           ;!STACK                0      0       4       2        0.0%
   586                           ;!ABS                  0      0      19       3        0.0%
   587                           ;!BITBANK0            50      0       0       4        0.0%
   588                           ;!BITSFR3              0      0       0       4        0.0%
   589                           ;!SFR3                 0      0       0       4        0.0%
   590                           ;!BANK0               50      A       B       5       13.8%
   591                           ;!BITSFR2              0      0       0       5        0.0%
   592                           ;!SFR2                 0      0       0       5        0.0%
   593                           ;!BITBANK1            50      0       0       6        0.0%
   594                           ;!BANK1               50      0       0       7        0.0%
   595                           ;!BITBANK3            60      0       0       8        0.0%
   596                           ;!BANK3               60      0       0       9        0.0%
   597                           ;!BITBANK2            60      0       0      10        0.0%
   598                           ;!BANK2               60      0       0      11        0.0%
   599                           ;!DATA                 0      0      1D      12        0.0%
   600                           
   601                           	global	_main
   602                           
   603 ;; *************** function _main *****************
   604 ;; Defined at:
   605 ;;		line 66 in file "PR18.c"
   606 ;; Parameters:    Size  Location     Type
   607 ;;		None
   608 ;; Auto vars:     Size  Location     Type
   609 ;;		None
   610 ;; Return value:  Size  Location     Type
   611 ;;		None               void
   612 ;; Registers used:
   613 ;;		wreg, fsr0l, fsr0h, status,2, status,0, btemp+1, pclath, cstack
   614 ;; Tracked objects:
   615 ;;		On entry : 17F/0
   616 ;;		On exit  : 0/0
   617 ;;		Unchanged: 0/0
   618 ;; Data sizes:     COMMON   BANK0   BANK1   BANK3   BANK2
   619 ;;      Params:         0       0       0       0       0
   620 ;;      Locals:         0       0       0       0       0
   621 ;;      Temps:          0       1       0       0       0
   622 ;;      Totals:         0       1       0       0       0
   623 ;;Total ram usage:        1 bytes
   624 ;; Hardware stack levels required when called:    4
   625 ;; This function calls:
   626 ;;		_send_config
   627 ;;		_lcd_clr
   628 ;;		_lcd_goto
   629 ;;		_send_string
   630 ;;		_send_cmd
   631 ;;		_delay
   632 ;;		_mode1
   633 ;;		_mode2
   634 ;; This function is called by:
   635 ;;		Startup code after reset
   636 ;; This function uses a non-reentrant model
   637 ;;
   638                           psect	maintext,global,class=CODE,delta=2,split=1
   639                           global __pmaintext
   640  01F5                     __pmaintext:
   641                           psect	maintext
   642                           	file	"PR18.c"
   643                           	line	66
   644                           	global	__size_of_main
   645  016C                     	__size_of_main	equ	__end_of_main-_main
   646                           	
   647  01F5                     _main:	
   648                           	opt	stack 4
   649                           ; Regs used in _main: [wreg-fsr0h+status,2+status,0+btemp+1+pclath+cstack]
   650                           	line	68
   651                           	
   652  01F5                     l1493:	
   653                           ;PR18.c: 68: TRISB = 0b00000000;
   654  01F5  1683               	bsf	status, 5	;RP0=1, select bank1
   655  01F6  1303               	bcf	status, 6	;RP1=0, select bank1
   656  01F7  0186               	clrf	(134)^080h	;volatile
   657                           	line	69
   658                           	
   659  01F8                     l1495:	
   660                           ;PR18.c: 69: TRISC = 0b10000000;
   661  01F8  3080               	movlw	(080h)
   662  01F9  0087               	movwf	(135)^080h	;volatile
   663                           	line	70
   664                           	
   665  01FA                     l1497:	
   666                           ;PR18.c: 70: TRISA = 0b00000111;
   667  01FA  3007               	movlw	(07h)
   668  01FB  0085               	movwf	(133)^080h	;volatile
   669                           	line	73
   670                           	
   671  01FC                     l1499:	
   672                           ;PR18.c: 73: SPBRG = 31;
   673  01FC  301F               	movlw	(01Fh)
   674  01FD  0099               	movwf	(153)^080h	;volatile
   675                           	line	74
   676                           	
   677  01FE                     l1501:	
   678                           ;PR18.c: 74: BRGH = 0;
   679  01FE  1118               	bcf	(1218/8)^080h,(1218)&7	;volatile
   680                           	line	75
   681                           	
   682  01FF                     l1503:	
   683                           ;PR18.c: 75: TXEN = 1;
   684  01FF  1698               	bsf	(1221/8)^080h,(1221)&7	;volatile
   685                           	line	76
   686                           	
   687  0200                     l1505:	
   688                           ;PR18.c: 76: CREN = 1;
   689  0200  1283               	bcf	status, 5	;RP0=0, select bank0
   690  0201  1303               	bcf	status, 6	;RP1=0, select bank0
   691  0202  1618               	bsf	(196/8),(196)&7	;volatile
   692                           	line	77
   693                           	
   694  0203                     l1507:	
   695                           ;PR18.c: 77: SPEN = 1;
   696  0203  1798               	bsf	(199/8),(199)&7	;volatile
   697                           	line	80
   698                           	
   699  0204                     l1509:	
   700                           ;PR18.c: 80: ADCON1 = 0b00000110;
   701  0204  3006               	movlw	(06h)
   702  0205  1683               	bsf	status, 5	;RP0=1, select bank1
   703  0206  1303               	bcf	status, 6	;RP1=0, select bank1
   704  0207  009F               	movwf	(159)^080h	;volatile
   705                           	line	83
   706                           	
   707  0208                     l1511:	
   708                           ;PR18.c: 83: send_config(0b00000001);
   709  0208  3001               	movlw	(01h)
   710  0209  120A  118A  2092   	fcall	_send_config
              120A  118A         
   711                           	line	84
   712                           	
   713  020E                     l1513:	
   714                           ;PR18.c: 84: send_config(0b00000010);
   715  020E  3002               	movlw	(02h)
   716  020F  120A  118A  2092   	fcall	_send_config
              120A  118A         
   717                           	line	85
   718                           	
   719  0214                     l1515:	
   720                           ;PR18.c: 85: send_config(0b00000110);
   721  0214  3006               	movlw	(06h)
   722  0215  120A  118A  2092   	fcall	_send_config
              120A  118A         
   723                           	line	86
   724                           	
   725  021A                     l1517:	
   726                           ;PR18.c: 86: send_config(0b00001100);
   727  021A  300C               	movlw	(0Ch)
   728  021B  120A  118A  2092   	fcall	_send_config
              120A  118A         
   729                           	line	87
   730                           	
   731  0220                     l1519:	
   732                           ;PR18.c: 87: send_config(0b00111000);
   733  0220  3038               	movlw	(038h)
   734  0221  120A  118A  2092   	fcall	_send_config
              120A  118A         
   735                           	line	90
   736                           	
   737  0226                     l1521:	
   738                           ;PR18.c: 90: CCP1CON = 0b00001100;
   739  0226  300C               	movlw	(0Ch)
   740  0227  1283               	bcf	status, 5	;RP0=0, select bank0
   741  0228  1303               	bcf	status, 6	;RP1=0, select bank0
   742  0229  0097               	movwf	(23)	;volatile
   743                           	line	91
   744                           	
   745  022A                     l1523:	
   746                           ;PR18.c: 91: CCP2CON = 0b00001100;
   747  022A  300C               	movlw	(0Ch)
   748  022B  009D               	movwf	(29)	;volatile
   749                           	line	92
   750                           	
   751  022C                     l1525:	
   752                           ;PR18.c: 92: PR2 = 0xFF;
   753  022C  30FF               	movlw	(0FFh)
   754  022D  1683               	bsf	status, 5	;RP0=1, select bank1
   755  022E  1303               	bcf	status, 6	;RP1=0, select bank1
   756  022F  0092               	movwf	(146)^080h	;volatile
   757                           	line	93
   758                           	
   759  0230                     l1527:	
   760                           ;PR18.c: 93: T2CON = 0b00000101;
   761  0230  3005               	movlw	(05h)
   762  0231  1283               	bcf	status, 5	;RP0=0, select bank0
   763  0232  1303               	bcf	status, 6	;RP1=0, select bank0
   764  0233  0092               	movwf	(18)	;volatile
   765                           	line	94
   766                           	
   767  0234                     l1529:	
   768                           ;PR18.c: 94: CCPR1L = 50;
   769  0234  3032               	movlw	(032h)
   770  0235  0095               	movwf	(21)	;volatile
   771                           	line	95
   772                           	
   773  0236                     l1531:	
   774                           ;PR18.c: 95: CCPR2L = 50;
   775  0236  3032               	movlw	(032h)
   776  0237  009B               	movwf	(27)	;volatile
   777                           	line	98
   778                           	
   779  0238                     l1533:	
   780                           ;PR18.c: 98: lcd_clr();
   781  0238  120A  158A  27C6   	fcall	_lcd_clr
              120A  118A         
   782                           	line	99
   783                           	
   784  023D                     l1535:	
   785                           ;PR18.c: 99: lcd_goto(0);
   786  023D  3000               	movlw	(0)
   787  023E  120A  118A  204F   	fcall	_lcd_goto
              120A  118A         
   788                           	line	100
   789                           	
   790  0243                     l1537:	
   791                           ;PR18.c: 100: send_string("Cytron Tech.");
   792  0243  301F               	movlw	((STR_1-__stringbase))&0ffh
   793  0244  120A  118A  206C   	fcall	_send_string
              120A  118A         
   794                           	line	101
   795                           	
   796  0249                     l1539:	
   797                           ;PR18.c: 101: lcd_goto(20);
   798  0249  3014               	movlw	(014h)
   799  024A  120A  118A  204F   	fcall	_lcd_goto
              120A  118A         
   800                           	line	102
   801                           	
   802  024F                     l1541:	
   803                           ;PR18.c: 102: send_string("PR18");
   804  024F  303D               	movlw	((STR_2-__stringbase))&0ffh
   805  0250  120A  118A  206C   	fcall	_send_string
              120A  118A         
   806                           	line	109
   807                           	
   808  0255                     l1543:	
   809                           ;PR18.c: 109: send_cmd(0x4A, 732, 0);
   810  0255  30DC               	movlw	low(02DCh)
   811  0256  00F1               	movwf	(?_send_cmd)
   812  0257  3002               	movlw	high(02DCh)
   813  0258  00F2               	movwf	((?_send_cmd))+1
   814  0259  3000               	movlw	low(0)
   815  025A  00F3               	movwf	0+(?_send_cmd)+02h
   816  025B  3000               	movlw	high(0)
   817  025C  00F4               	movwf	(0+(?_send_cmd)+02h)+1
   818  025D  304A               	movlw	(04Ah)
   819  025E  120A  118A  20E8   	fcall	_send_cmd
              120A  118A         
   820                           	line	110
   821                           	
   822  0263                     l1545:	
   823                           ;PR18.c: 110: send_cmd(0x4B, 732, 0);
   824  0263  30DC               	movlw	low(02DCh)
   825  0264  00F1               	movwf	(?_send_cmd)
   826  0265  3002               	movlw	high(02DCh)
   827  0266  00F2               	movwf	((?_send_cmd))+1
   828  0267  3000               	movlw	low(0)
   829  0268  00F3               	movwf	0+(?_send_cmd)+02h
   830  0269  3000               	movlw	high(0)
   831  026A  00F4               	movwf	(0+(?_send_cmd)+02h)+1
   832  026B  304B               	movlw	(04Bh)
   833  026C  120A  118A  20E8   	fcall	_send_cmd
              120A  118A         
   834                           	line	111
   835                           	
   836  0271                     l1547:	
   837                           ;PR18.c: 111: send_cmd(0x4C, 732, 0);
   838  0271  30DC               	movlw	low(02DCh)
   839  0272  00F1               	movwf	(?_send_cmd)
   840  0273  3002               	movlw	high(02DCh)
   841  0274  00F2               	movwf	((?_send_cmd))+1
   842  0275  3000               	movlw	low(0)
   843  0276  00F3               	movwf	0+(?_send_cmd)+02h
   844  0277  3000               	movlw	high(0)
   845  0278  00F4               	movwf	(0+(?_send_cmd)+02h)+1
   846  0279  304C               	movlw	(04Ch)
   847  027A  120A  118A  20E8   	fcall	_send_cmd
              120A  118A         
   848                           	line	113
   849                           	
   850  027F                     l1549:	
   851                           ;PR18.c: 113: send_cmd(0x47, 732, 0);
   852  027F  30DC               	movlw	low(02DCh)
   853  0280  00F1               	movwf	(?_send_cmd)
   854  0281  3002               	movlw	high(02DCh)
   855  0282  00F2               	movwf	((?_send_cmd))+1
   856  0283  3000               	movlw	low(0)
   857  0284  00F3               	movwf	0+(?_send_cmd)+02h
   858  0285  3000               	movlw	high(0)
   859  0286  00F4               	movwf	(0+(?_send_cmd)+02h)+1
   860  0287  3047               	movlw	(047h)
   861  0288  120A  118A  20E8   	fcall	_send_cmd
              120A  118A         
   862                           	line	114
   863                           	
   864  028D                     l1551:	
   865                           ;PR18.c: 114: send_cmd(0x48, 732, 0);
   866  028D  30DC               	movlw	low(02DCh)
   867  028E  00F1               	movwf	(?_send_cmd)
   868  028F  3002               	movlw	high(02DCh)
   869  0290  00F2               	movwf	((?_send_cmd))+1
   870  0291  3000               	movlw	low(0)
   871  0292  00F3               	movwf	0+(?_send_cmd)+02h
   872  0293  3000               	movlw	high(0)
   873  0294  00F4               	movwf	(0+(?_send_cmd)+02h)+1
   874  0295  3048               	movlw	(048h)
   875  0296  120A  118A  20E8   	fcall	_send_cmd
              120A  118A         
   876                           	line	115
   877                           	
   878  029B                     l1553:	
   879                           ;PR18.c: 115: send_cmd(0x49, 732, 0);
   880  029B  30DC               	movlw	low(02DCh)
   881  029C  00F1               	movwf	(?_send_cmd)
   882  029D  3002               	movlw	high(02DCh)
   883  029E  00F2               	movwf	((?_send_cmd))+1
   884  029F  3000               	movlw	low(0)
   885  02A0  00F3               	movwf	0+(?_send_cmd)+02h
   886  02A1  3000               	movlw	high(0)
   887  02A2  00F4               	movwf	(0+(?_send_cmd)+02h)+1
   888  02A3  3049               	movlw	(049h)
   889  02A4  120A  118A  20E8   	fcall	_send_cmd
              120A  118A         
   890                           	line	117
   891                           	
   892  02A9                     l1555:	
   893                           ;PR18.c: 117: delay(200000);
   894  02A9  3000               	movlw	0
   895  02AA  00F3               	movwf	(?_delay+3)
   896  02AB  3003               	movlw	03h
   897  02AC  00F2               	movwf	(?_delay+2)
   898  02AD  300D               	movlw	0Dh
   899  02AE  00F1               	movwf	(?_delay+1)
   900  02AF  3040               	movlw	040h
   901  02B0  00F0               	movwf	(?_delay)
   902                           
   903  02B1  120A  118A  20B8   	fcall	_delay
              120A  118A         
   904                           	line	119
   905                           	
   906  02B6                     l1557:	
   907                           ;PR18.c: 119: mode = 1;
   908  02B6  1283               	bcf	status, 5	;RP0=0, select bank0
   909  02B7  1303               	bcf	status, 6	;RP1=0, select bank0
   910  02B8  01AA               	clrf	(_mode)
   911  02B9  1403               	bsf	status,0
   912  02BA  0DAA               	rlf	(_mode),f
   913  02BB  2ABC               	goto	l1559
   914                           	line	121
   915                           ;PR18.c: 121: while(1)
   916                           	
   917  02BC                     l71:	
   918                           	line	123
   919                           	
   920  02BC                     l1559:	
   921                           ;PR18.c: 122: {
   922                           ;PR18.c: 123: lcd_clr();
   923  02BC  120A  158A  27C6   	fcall	_lcd_clr
              120A  118A         
   924                           	line	124
   925                           	
   926  02C1                     l1561:	
   927                           ;PR18.c: 124: lcd_goto(20);
   928  02C1  3014               	movlw	(014h)
   929  02C2  120A  118A  204F   	fcall	_lcd_goto
              120A  118A         
   930                           	line	125
   931                           	
   932  02C7                     l1563:	
   933                           ;PR18.c: 125: send_string("OK");
   934  02C7  3042               	movlw	((STR_3-__stringbase))&0ffh
   935  02C8  120A  118A  206C   	fcall	_send_string
              120A  118A         
   936                           	line	127
   937                           ;PR18.c: 127: while(RA2)
   938  02CD  2B1B               	goto	l1585
   939                           	
   940  02CE                     l73:	
   941                           	line	129
   942                           ;PR18.c: 128: {
   943                           ;PR18.c: 129: if(!RA0)
   944  02CE  1805               	btfsc	(40/8),(40)&7	;volatile
   945  02CF  2AD1               	goto	u891
   946  02D0  2AD2               	goto	u890
   947  02D1                     u891:
   948  02D1  2ADC               	goto	l74
   949  02D2                     u890:
   950                           	line	132
   951                           	
   952  02D2                     l1565:	
   953                           ;PR18.c: 130: {
   954                           ;PR18.c: 132: if(mode > 1)
   955  02D2  3002               	movlw	(02h)
   956  02D3  022A               	subwf	(_mode),w
   957  02D4  1C03               	skipc
   958  02D5  2AD7               	goto	u901
   959  02D6  2AD8               	goto	u900
   960  02D7                     u901:
   961  02D7  2AED               	goto	l1573
   962  02D8                     u900:
   963                           	line	133
   964                           	
   965  02D8                     l1567:	
   966                           ;PR18.c: 133: mode--;
   967  02D8  3001               	movlw	low(01h)
   968  02D9  02AA               	subwf	(_mode),f
   969  02DA  2AED               	goto	l1573
   970                           	
   971  02DB                     l75:	
   972                           	line	134
   973                           ;PR18.c: 134: }
   974  02DB  2AED               	goto	l1573
   975                           	line	135
   976                           	
   977  02DC                     l74:	
   978                           ;PR18.c: 135: else if(!RA1)
   979  02DC  1885               	btfsc	(41/8),(41)&7	;volatile
   980  02DD  2ADF               	goto	u911
   981  02DE  2AE0               	goto	u910
   982  02DF                     u911:
   983  02DF  2AED               	goto	l1573
   984  02E0                     u910:
   985                           	line	138
   986                           	
   987  02E0                     l1569:	
   988                           ;PR18.c: 136: {
   989                           ;PR18.c: 138: if(mode < 2)
   990  02E0  3002               	movlw	(02h)
   991  02E1  022A               	subwf	(_mode),w
   992  02E2  1803               	skipnc
   993  02E3  2AE5               	goto	u921
   994  02E4  2AE6               	goto	u920
   995  02E5                     u921:
   996  02E5  2AED               	goto	l1573
   997  02E6                     u920:
   998                           	line	139
   999                           	
  1000  02E6                     l1571:	
  1001                           ;PR18.c: 139: mode++;
  1002  02E6  3001               	movlw	(01h)
  1003  02E7  00A9               	movwf	(??_main+0)+0
  1004  02E8  0829               	movf	(??_main+0)+0,w
  1005  02E9  07AA               	addwf	(_mode),f
  1006  02EA  2AED               	goto	l1573
  1007                           	
  1008  02EB                     l78:	
  1009  02EB  2AED               	goto	l1573
  1010                           	line	140
  1011                           	
  1012  02EC                     l77:	
  1013  02EC  2AED               	goto	l1573
  1014                           	line	143
  1015                           	
  1016  02ED                     l76:	
  1017                           	
  1018  02ED                     l1573:	
  1019                           ;PR18.c: 140: }
  1020                           ;PR18.c: 143: lcd_goto(0);
  1021  02ED  3000               	movlw	(0)
  1022  02EE  120A  118A  204F   	fcall	_lcd_goto
              120A  118A         
  1023                           	line	144
  1024                           ;PR18.c: 144: switch(mode)
  1025  02F3  2B03               	goto	l1581
  1026                           	line	146
  1027                           ;PR18.c: 145: {
  1028                           ;PR18.c: 146: case 1 : send_string("Biped Walking?");
  1029                           	
  1030  02F4                     l80:	
  1031                           	
  1032  02F4                     l1575:	
  1033  02F4  3010               	movlw	((STR_4-__stringbase))&0ffh
  1034  02F5  120A  118A  206C   	fcall	_send_string
              120A  118A         
  1035                           	line	147
  1036                           ;PR18.c: 147: break;
  1037  02FA  2B0D               	goto	l1583
  1038                           	line	149
  1039                           ;PR18.c: 149: case 2 : send_string("Calibration?  ");
  1040                           	
  1041  02FB                     l82:	
  1042                           	
  1043  02FB                     l1577:	
  1044  02FB  3001               	movlw	((STR_5-__stringbase))&0ffh
  1045  02FC  120A  118A  206C   	fcall	_send_string
              120A  118A         
  1046                           	line	150
  1047                           ;PR18.c: 150: break;
  1048  0301  2B0D               	goto	l1583
  1049                           	line	151
  1050                           	
  1051  0302                     l1579:	
  1052                           ;PR18.c: 151: }
  1053  0302  2B0D               	goto	l1583
  1054                           	line	144
  1055                           	
  1056  0303                     l79:	
  1057                           	
  1058  0303                     l1581:	
  1059  0303  1283               	bcf	status, 5	;RP0=0, select bank0
  1060  0304  1303               	bcf	status, 6	;RP1=0, select bank0
  1061  0305  082A               	movf	(_mode),w
  1062                           	; Switch size 1, requested type "space"
  1063                           ; Number of cases is 2, Range of values is 1 to 2
  1064                           ; switch strategies available:
  1065                           ; Name         Instructions Cycles
  1066                           ; simple_byte            7     4 (average)
  1067                           ; direct_byte           17    11 (fixed)
  1068                           ; jumptable            263     9 (fixed)
  1069                           ;	Chosen strategy is simple_byte
  1070                           
  1071                           	opt asmopt_off
  1072  0306  3A01               	xorlw	1^0	; case 1
  1073  0307  1903               	skipnz
  1074  0308  2AF4               	goto	l1575
  1075  0309  3A03               	xorlw	2^1	; case 2
  1076  030A  1903               	skipnz
  1077  030B  2AFB               	goto	l1577
  1078  030C  2B0D               	goto	l1583
  1079                           	opt asmopt_on
  1080                           
  1081                           	line	151
  1082                           	
  1083  030D                     l81:	
  1084                           	line	153
  1085                           	
  1086  030D                     l1583:	
  1087                           ;PR18.c: 153: delay(30000);
  1088  030D  3000               	movlw	0
  1089  030E  00F3               	movwf	(?_delay+3)
  1090  030F  3000               	movlw	0
  1091  0310  00F2               	movwf	(?_delay+2)
  1092  0311  3075               	movlw	075h
  1093  0312  00F1               	movwf	(?_delay+1)
  1094  0313  3030               	movlw	030h
  1095  0314  00F0               	movwf	(?_delay)
  1096                           
  1097  0315  120A  118A  20B8   	fcall	_delay
              120A  118A         
  1098  031A  2B1B               	goto	l1585
  1099                           	line	155
  1100                           	
  1101  031B                     l72:	
  1102                           	line	127
  1103                           	
  1104  031B                     l1585:	
  1105  031B  1283               	bcf	status, 5	;RP0=0, select bank0
  1106  031C  1303               	bcf	status, 6	;RP1=0, select bank0
  1107  031D  1905               	btfsc	(42/8),(42)&7	;volatile
  1108  031E  2B20               	goto	u931
  1109  031F  2B21               	goto	u930
  1110  0320                     u931:
  1111  0320  2ACE               	goto	l73
  1112  0321                     u930:
  1113  0321  2B22               	goto	l1587
  1114                           	
  1115  0322                     l83:	
  1116                           	line	157
  1117                           	
  1118  0322                     l1587:	
  1119                           ;PR18.c: 155: }
  1120                           ;PR18.c: 157: delay(10000);
  1121  0322  3000               	movlw	0
  1122  0323  00F3               	movwf	(?_delay+3)
  1123  0324  3000               	movlw	0
  1124  0325  00F2               	movwf	(?_delay+2)
  1125  0326  3027               	movlw	027h
  1126  0327  00F1               	movwf	(?_delay+1)
  1127  0328  3010               	movlw	010h
  1128  0329  00F0               	movwf	(?_delay)
  1129                           
  1130  032A  120A  118A  20B8   	fcall	_delay
              120A  118A         
  1131                           	line	158
  1132                           ;PR18.c: 158: while(!RA2);
  1133  032F  2B30               	goto	l84
  1134                           	
  1135  0330                     l85:	
  1136                           	
  1137  0330                     l84:	
  1138  0330  1283               	bcf	status, 5	;RP0=0, select bank0
  1139  0331  1303               	bcf	status, 6	;RP1=0, select bank0
  1140  0332  1D05               	btfss	(42/8),(42)&7	;volatile
  1141  0333  2B35               	goto	u941
  1142  0334  2B36               	goto	u940
  1143  0335                     u941:
  1144  0335  2B30               	goto	l84
  1145  0336                     u940:
  1146  0336  2B37               	goto	l1589
  1147                           	
  1148  0337                     l86:	
  1149                           	line	159
  1150                           	
  1151  0337                     l1589:	
  1152                           ;PR18.c: 159: delay(10000);
  1153  0337  3000               	movlw	0
  1154  0338  00F3               	movwf	(?_delay+3)
  1155  0339  3000               	movlw	0
  1156  033A  00F2               	movwf	(?_delay+2)
  1157  033B  3027               	movlw	027h
  1158  033C  00F1               	movwf	(?_delay+1)
  1159  033D  3010               	movlw	010h
  1160  033E  00F0               	movwf	(?_delay)
  1161                           
  1162  033F  120A  118A  20B8   	fcall	_delay
              120A  118A         
  1163                           	line	161
  1164                           ;PR18.c: 161: switch(mode)
  1165  0344  2B52               	goto	l1597
  1166                           	line	163
  1167                           ;PR18.c: 162: {
  1168                           ;PR18.c: 163: case 1 : mode1();
  1169                           	
  1170  0345                     l88:	
  1171                           	
  1172  0345                     l1591:	
  1173  0345  120A  118A  255D   	fcall	_mode1
              120A  118A         
  1174                           	line	164
  1175                           ;PR18.c: 164: break;
  1176  034A  2ABC               	goto	l1559
  1177                           	line	166
  1178                           ;PR18.c: 166: case 2 : mode2();
  1179                           	
  1180  034B                     l90:	
  1181                           	
  1182  034B                     l1593:	
  1183  034B  120A  118A  2361   	fcall	_mode2
              120A  118A         
  1184                           	line	167
  1185                           ;PR18.c: 167: break;
  1186  0350  2ABC               	goto	l1559
  1187                           	line	168
  1188                           	
  1189  0351                     l1595:	
  1190                           ;PR18.c: 168: }
  1191  0351  2ABC               	goto	l1559
  1192                           	line	161
  1193                           	
  1194  0352                     l87:	
  1195                           	
  1196  0352                     l1597:	
  1197  0352  1283               	bcf	status, 5	;RP0=0, select bank0
  1198  0353  1303               	bcf	status, 6	;RP1=0, select bank0
  1199  0354  082A               	movf	(_mode),w
  1200                           	; Switch size 1, requested type "space"
  1201                           ; Number of cases is 2, Range of values is 1 to 2
  1202                           ; switch strategies available:
  1203                           ; Name         Instructions Cycles
  1204                           ; simple_byte            7     4 (average)
  1205                           ; direct_byte           17    11 (fixed)
  1206                           ; jumptable            263     9 (fixed)
  1207                           ;	Chosen strategy is simple_byte
  1208                           
  1209                           	opt asmopt_off
  1210  0355  3A01               	xorlw	1^0	; case 1
  1211  0356  1903               	skipnz
  1212  0357  2B45               	goto	l1591
  1213  0358  3A03               	xorlw	2^1	; case 2
  1214  0359  1903               	skipnz
  1215  035A  2B4B               	goto	l1593
  1216  035B  2ABC               	goto	l1559
  1217                           	opt asmopt_on
  1218                           
  1219                           	line	168
  1220                           	
  1221  035C                     l89:	
  1222  035C  2ABC               	goto	l1559
  1223                           	line	169
  1224                           	
  1225  035D                     l91:	
  1226                           	line	121
  1227  035D  2ABC               	goto	l1559
  1228                           	
  1229  035E                     l92:	
  1230                           	line	170
  1231                           	
  1232  035E                     l93:	
  1233                           	global	start
  1234  035E  120A  118A  2800   	ljmp	start
  1235                           	opt stack 0
  1236                           GLOBAL	__end_of_main
  1237  0361                     	__end_of_main:
  1238                           	signat	_main,88
  1239                           	global	_mode1
  1240                           
  1241 ;; *************** function _mode1 *****************
  1242 ;; Defined at:
  1243 ;;		line 175 in file "PR18.c"
  1244 ;; Parameters:    Size  Location     Type
  1245 ;;		None
  1246 ;; Auto vars:     Size  Location     Type
  1247 ;;		None
  1248 ;; Return value:  Size  Location     Type
  1249 ;;		None               void
  1250 ;; Registers used:
  1251 ;;		wreg, fsr0l, fsr0h, status,2, status,0, pclath, cstack
  1252 ;; Tracked objects:
  1253 ;;		On entry : 0/0
  1254 ;;		On exit  : 0/0
  1255 ;;		Unchanged: 0/0
  1256 ;; Data sizes:     COMMON   BANK0   BANK1   BANK3   BANK2
  1257 ;;      Params:         0       0       0       0       0
  1258 ;;      Locals:         0       0       0       0       0
  1259 ;;      Temps:          0       0       0       0       0
  1260 ;;      Totals:         0       0       0       0       0
  1261 ;;Total ram usage:        0 bytes
  1262 ;; Hardware stack levels used:    1
  1263 ;; Hardware stack levels required when called:    3
  1264 ;; This function calls:
  1265 ;;		_lcd_goto
  1266 ;;		_send_char
  1267 ;;		_send_string
  1268 ;;		_delay
  1269 ;;		_send_cmd
  1270 ;; This function is called by:
  1271 ;;		_main
  1272 ;; This function uses a non-reentrant model
  1273 ;;
  1274                           psect	text229,local,class=CODE,delta=2,merge=1
  1275                           global __ptext229
  1276  055D                     __ptext229:
  1277                           psect	text229
  1278                           	file	"PR18.c"
  1279                           	line	175
  1280                           	global	__size_of_mode1
  1281  02A3                     	__size_of_mode1	equ	__end_of_mode1-_mode1
  1282                           	
  1283  055D                     _mode1:	
  1284                           	opt	stack 4
  1285                           ; Regs used in _mode1: [wreg-fsr0h+status,2+status,0+pclath+cstack]
  1286                           	line	176
  1287                           	
  1288  055D                     l1325:	
  1289                           ;PR18.c: 176: lcd_goto(13);
  1290  055D  300D               	movlw	(0Dh)
  1291  055E  120A  118A  204F   	fcall	_lcd_goto
              120A  118A         
  1292                           	line	177
  1293                           ;PR18.c: 177: send_char(' ');
  1294  0563  3020               	movlw	(020h)
  1295  0564  120A  158A  27DA   	fcall	_send_char
              120A  118A         
  1296                           	line	178
  1297                           ;PR18.c: 178: lcd_goto(20);
  1298  0569  3014               	movlw	(014h)
  1299  056A  120A  118A  204F   	fcall	_lcd_goto
              120A  118A         
  1300                           	line	179
  1301                           	
  1302  056F                     l1327:	
  1303                           ;PR18.c: 179: send_string("  ");
  1304  056F  300D               	movlw	((STR_6-__stringbase))&0ffh
  1305  0570  120A  118A  206C   	fcall	_send_string
              120A  118A         
  1306                           	line	180
  1307                           	
  1308  0575                     l1329:	
  1309                           ;PR18.c: 180: delay(100000);
  1310  0575  3000               	movlw	0
  1311  0576  00F3               	movwf	(?_delay+3)
  1312  0577  3001               	movlw	01h
  1313  0578  00F2               	movwf	(?_delay+2)
  1314  0579  3086               	movlw	086h
  1315  057A  00F1               	movwf	(?_delay+1)
  1316  057B  30A0               	movlw	0A0h
  1317  057C  00F0               	movwf	(?_delay)
  1318                           
  1319  057D  120A  118A  20B8   	fcall	_delay
              120A  118A         
  1320                           	line	184
  1321                           	
  1322  0582                     l1331:	
  1323                           ;PR18.c: 184: send_cmd(0x4A, 732+300, 30);
  1324  0582  3008               	movlw	low(0408h)
  1325  0583  00F1               	movwf	(?_send_cmd)
  1326  0584  3004               	movlw	high(0408h)
  1327  0585  00F2               	movwf	((?_send_cmd))+1
  1328  0586  301E               	movlw	low(01Eh)
  1329  0587  00F3               	movwf	0+(?_send_cmd)+02h
  1330  0588  3000               	movlw	high(01Eh)
  1331  0589  00F4               	movwf	(0+(?_send_cmd)+02h)+1
  1332  058A  304A               	movlw	(04Ah)
  1333  058B  120A  118A  20E8   	fcall	_send_cmd
              120A  118A         
  1334                           	line	185
  1335                           	
  1336  0590                     l1333:	
  1337                           ;PR18.c: 185: send_cmd(0x47, 732-300, 30);
  1338  0590  30B0               	movlw	low(01B0h)
  1339  0591  00F1               	movwf	(?_send_cmd)
  1340  0592  3001               	movlw	high(01B0h)
  1341  0593  00F2               	movwf	((?_send_cmd))+1
  1342  0594  301E               	movlw	low(01Eh)
  1343  0595  00F3               	movwf	0+(?_send_cmd)+02h
  1344  0596  3000               	movlw	high(01Eh)
  1345  0597  00F4               	movwf	(0+(?_send_cmd)+02h)+1
  1346  0598  3047               	movlw	(047h)
  1347  0599  120A  118A  20E8   	fcall	_send_cmd
              120A  118A         
  1348                           	line	186
  1349                           	
  1350  059E                     l1335:	
  1351                           ;PR18.c: 186: send_cmd(0x4B, 732+300, 30);
  1352  059E  3008               	movlw	low(0408h)
  1353  059F  00F1               	movwf	(?_send_cmd)
  1354  05A0  3004               	movlw	high(0408h)
  1355  05A1  00F2               	movwf	((?_send_cmd))+1
  1356  05A2  301E               	movlw	low(01Eh)
  1357  05A3  00F3               	movwf	0+(?_send_cmd)+02h
  1358  05A4  3000               	movlw	high(01Eh)
  1359  05A5  00F4               	movwf	(0+(?_send_cmd)+02h)+1
  1360  05A6  304B               	movlw	(04Bh)
  1361  05A7  120A  118A  20E8   	fcall	_send_cmd
              120A  118A         
  1362                           	line	187
  1363                           	
  1364  05AC                     l1337:	
  1365                           ;PR18.c: 187: send_cmd(0x48, 732-300, 30);
  1366  05AC  30B0               	movlw	low(01B0h)
  1367  05AD  00F1               	movwf	(?_send_cmd)
  1368  05AE  3001               	movlw	high(01B0h)
  1369  05AF  00F2               	movwf	((?_send_cmd))+1
  1370  05B0  301E               	movlw	low(01Eh)
  1371  05B1  00F3               	movwf	0+(?_send_cmd)+02h
  1372  05B2  3000               	movlw	high(01Eh)
  1373  05B3  00F4               	movwf	(0+(?_send_cmd)+02h)+1
  1374  05B4  3048               	movlw	(048h)
  1375  05B5  120A  118A  20E8   	fcall	_send_cmd
              120A  118A         
  1376                           	line	188
  1377                           	
  1378  05BA                     l1339:	
  1379                           ;PR18.c: 188: delay(200000);
  1380  05BA  3000               	movlw	0
  1381  05BB  00F3               	movwf	(?_delay+3)
  1382  05BC  3003               	movlw	03h
  1383  05BD  00F2               	movwf	(?_delay+2)
  1384  05BE  300D               	movlw	0Dh
  1385  05BF  00F1               	movwf	(?_delay+1)
  1386  05C0  3040               	movlw	040h
  1387  05C1  00F0               	movwf	(?_delay)
  1388                           
  1389  05C2  120A  118A  20B8   	fcall	_delay
              120A  118A         
  1390                           	line	189
  1391                           	
  1392  05C7                     l1341:	
  1393                           ;PR18.c: 189: send_cmd(0x4C, 732-200, 20);
  1394  05C7  3014               	movlw	low(0214h)
  1395  05C8  00F1               	movwf	(?_send_cmd)
  1396  05C9  3002               	movlw	high(0214h)
  1397  05CA  00F2               	movwf	((?_send_cmd))+1
  1398  05CB  3014               	movlw	low(014h)
  1399  05CC  00F3               	movwf	0+(?_send_cmd)+02h
  1400  05CD  3000               	movlw	high(014h)
  1401  05CE  00F4               	movwf	(0+(?_send_cmd)+02h)+1
  1402  05CF  304C               	movlw	(04Ch)
  1403  05D0  120A  118A  20E8   	fcall	_send_cmd
              120A  118A         
  1404                           	line	190
  1405                           	
  1406  05D5                     l1343:	
  1407                           ;PR18.c: 190: send_cmd(0x47, 732, 30);
  1408  05D5  30DC               	movlw	low(02DCh)
  1409  05D6  00F1               	movwf	(?_send_cmd)
  1410  05D7  3002               	movlw	high(02DCh)
  1411  05D8  00F2               	movwf	((?_send_cmd))+1
  1412  05D9  301E               	movlw	low(01Eh)
  1413  05DA  00F3               	movwf	0+(?_send_cmd)+02h
  1414  05DB  3000               	movlw	high(01Eh)
  1415  05DC  00F4               	movwf	(0+(?_send_cmd)+02h)+1
  1416  05DD  3047               	movlw	(047h)
  1417  05DE  120A  118A  20E8   	fcall	_send_cmd
              120A  118A         
  1418                           	line	191
  1419                           	
  1420  05E3                     l1345:	
  1421                           ;PR18.c: 191: send_cmd(0x48, 732, 30);
  1422  05E3  30DC               	movlw	low(02DCh)
  1423  05E4  00F1               	movwf	(?_send_cmd)
  1424  05E5  3002               	movlw	high(02DCh)
  1425  05E6  00F2               	movwf	((?_send_cmd))+1
  1426  05E7  301E               	movlw	low(01Eh)
  1427  05E8  00F3               	movwf	0+(?_send_cmd)+02h
  1428  05E9  3000               	movlw	high(01Eh)
  1429  05EA  00F4               	movwf	(0+(?_send_cmd)+02h)+1
  1430  05EB  3048               	movlw	(048h)
  1431  05EC  120A  118A  20E8   	fcall	_send_cmd
              120A  118A         
  1432                           	line	192
  1433                           	
  1434  05F1                     l1347:	
  1435                           ;PR18.c: 192: send_cmd(0x49, 732-200, 20);
  1436  05F1  3014               	movlw	low(0214h)
  1437  05F2  00F1               	movwf	(?_send_cmd)
  1438  05F3  3002               	movlw	high(0214h)
  1439  05F4  00F2               	movwf	((?_send_cmd))+1
  1440  05F5  3014               	movlw	low(014h)
  1441  05F6  00F3               	movwf	0+(?_send_cmd)+02h
  1442  05F7  3000               	movlw	high(014h)
  1443  05F8  00F4               	movwf	(0+(?_send_cmd)+02h)+1
  1444  05F9  3049               	movlw	(049h)
  1445  05FA  120A  118A  20E8   	fcall	_send_cmd
              120A  118A         
  1446                           	line	193
  1447                           	
  1448  05FF                     l1349:	
  1449                           ;PR18.c: 193: delay(300000);
  1450  05FF  3000               	movlw	0
  1451  0600  00F3               	movwf	(?_delay+3)
  1452  0601  3004               	movlw	04h
  1453  0602  00F2               	movwf	(?_delay+2)
  1454  0603  3093               	movlw	093h
  1455  0604  00F1               	movwf	(?_delay+1)
  1456  0605  30E0               	movlw	0E0h
  1457  0606  00F0               	movwf	(?_delay)
  1458                           
  1459  0607  120A  118A  20B8   	fcall	_delay
              120A  118A         
  1460  060C  2E0D               	goto	l1351
  1461                           	line	195
  1462                           ;PR18.c: 195: while(1)
  1463                           	
  1464  060D                     l96:	
  1465                           	line	198
  1466                           	
  1467  060D                     l1351:	
  1468                           ;PR18.c: 196: {
  1469                           ;PR18.c: 198: send_cmd(0x4C, 732-60, 20);
  1470  060D  30A0               	movlw	low(02A0h)
  1471  060E  00F1               	movwf	(?_send_cmd)
  1472  060F  3002               	movlw	high(02A0h)
  1473  0610  00F2               	movwf	((?_send_cmd))+1
  1474  0611  3014               	movlw	low(014h)
  1475  0612  00F3               	movwf	0+(?_send_cmd)+02h
  1476  0613  3000               	movlw	high(014h)
  1477  0614  00F4               	movwf	(0+(?_send_cmd)+02h)+1
  1478  0615  304C               	movlw	(04Ch)
  1479  0616  120A  118A  20E8   	fcall	_send_cmd
              120A  118A         
  1480                           	line	199
  1481                           	
  1482  061B                     l1353:	
  1483                           ;PR18.c: 199: send_cmd(0x49, 732-60, 20);
  1484  061B  30A0               	movlw	low(02A0h)
  1485  061C  00F1               	movwf	(?_send_cmd)
  1486  061D  3002               	movlw	high(02A0h)
  1487  061E  00F2               	movwf	((?_send_cmd))+1
  1488  061F  3014               	movlw	low(014h)
  1489  0620  00F3               	movwf	0+(?_send_cmd)+02h
  1490  0621  3000               	movlw	high(014h)
  1491  0622  00F4               	movwf	(0+(?_send_cmd)+02h)+1
  1492  0623  3049               	movlw	(049h)
  1493  0624  120A  118A  20E8   	fcall	_send_cmd
              120A  118A         
  1494                           	line	200
  1495                           	
  1496  0629                     l1355:	
  1497                           ;PR18.c: 200: delay(200000);
  1498  0629  3000               	movlw	0
  1499  062A  00F3               	movwf	(?_delay+3)
  1500  062B  3003               	movlw	03h
  1501  062C  00F2               	movwf	(?_delay+2)
  1502  062D  300D               	movlw	0Dh
  1503  062E  00F1               	movwf	(?_delay+1)
  1504  062F  3040               	movlw	040h
  1505  0630  00F0               	movwf	(?_delay)
  1506                           
  1507  0631  120A  118A  20B8   	fcall	_delay
              120A  118A         
  1508                           	line	202
  1509                           	
  1510  0636                     l1357:	
  1511                           ;PR18.c: 202: send_cmd(0x4A, 732-375, 40);
  1512  0636  3065               	movlw	low(0165h)
  1513  0637  00F1               	movwf	(?_send_cmd)
  1514  0638  3001               	movlw	high(0165h)
  1515  0639  00F2               	movwf	((?_send_cmd))+1
  1516  063A  3028               	movlw	low(028h)
  1517  063B  00F3               	movwf	0+(?_send_cmd)+02h
  1518  063C  3000               	movlw	high(028h)
  1519  063D  00F4               	movwf	(0+(?_send_cmd)+02h)+1
  1520  063E  304A               	movlw	(04Ah)
  1521  063F  120A  118A  20E8   	fcall	_send_cmd
              120A  118A         
  1522                           	line	203
  1523                           	
  1524  0644                     l1359:	
  1525                           ;PR18.c: 203: send_cmd(0x4B, 732, 20);
  1526  0644  30DC               	movlw	low(02DCh)
  1527  0645  00F1               	movwf	(?_send_cmd)
  1528  0646  3002               	movlw	high(02DCh)
  1529  0647  00F2               	movwf	((?_send_cmd))+1
  1530  0648  3014               	movlw	low(014h)
  1531  0649  00F3               	movwf	0+(?_send_cmd)+02h
  1532  064A  3000               	movlw	high(014h)
  1533  064B  00F4               	movwf	(0+(?_send_cmd)+02h)+1
  1534  064C  304B               	movlw	(04Bh)
  1535  064D  120A  118A  20E8   	fcall	_send_cmd
              120A  118A         
  1536                           	line	204
  1537                           	
  1538  0652                     l1361:	
  1539                           ;PR18.c: 204: send_cmd(0x47, 732+675, 40);
  1540  0652  307F               	movlw	low(057Fh)
  1541  0653  00F1               	movwf	(?_send_cmd)
  1542  0654  3005               	movlw	high(057Fh)
  1543  0655  00F2               	movwf	((?_send_cmd))+1
  1544  0656  3028               	movlw	low(028h)
  1545  0657  00F3               	movwf	0+(?_send_cmd)+02h
  1546  0658  3000               	movlw	high(028h)
  1547  0659  00F4               	movwf	(0+(?_send_cmd)+02h)+1
  1548  065A  3047               	movlw	(047h)
  1549  065B  120A  118A  20E8   	fcall	_send_cmd
              120A  118A         
  1550                           	line	205
  1551                           	
  1552  0660                     l1363:	
  1553                           ;PR18.c: 205: send_cmd(0x48, 732+300, 15);
  1554  0660  3008               	movlw	low(0408h)
  1555  0661  00F1               	movwf	(?_send_cmd)
  1556  0662  3004               	movlw	high(0408h)
  1557  0663  00F2               	movwf	((?_send_cmd))+1
  1558  0664  300F               	movlw	low(0Fh)
  1559  0665  00F3               	movwf	0+(?_send_cmd)+02h
  1560  0666  3000               	movlw	high(0Fh)
  1561  0667  00F4               	movwf	(0+(?_send_cmd)+02h)+1
  1562  0668  3048               	movlw	(048h)
  1563  0669  120A  118A  20E8   	fcall	_send_cmd
              120A  118A         
  1564                           	line	206
  1565                           	
  1566  066E                     l1365:	
  1567                           ;PR18.c: 206: send_cmd(0x4C, 732+60, 10);
  1568  066E  3018               	movlw	low(0318h)
  1569  066F  00F1               	movwf	(?_send_cmd)
  1570  0670  3003               	movlw	high(0318h)
  1571  0671  00F2               	movwf	((?_send_cmd))+1
  1572  0672  300A               	movlw	low(0Ah)
  1573  0673  00F3               	movwf	0+(?_send_cmd)+02h
  1574  0674  3000               	movlw	high(0Ah)
  1575  0675  00F4               	movwf	(0+(?_send_cmd)+02h)+1
  1576  0676  304C               	movlw	(04Ch)
  1577  0677  120A  118A  20E8   	fcall	_send_cmd
              120A  118A         
  1578                           	line	207
  1579                           	
  1580  067C                     l1367:	
  1581                           ;PR18.c: 207: send_cmd(0x49, 732+60, 10);
  1582  067C  3018               	movlw	low(0318h)
  1583  067D  00F1               	movwf	(?_send_cmd)
  1584  067E  3003               	movlw	high(0318h)
  1585  067F  00F2               	movwf	((?_send_cmd))+1
  1586  0680  300A               	movlw	low(0Ah)
  1587  0681  00F3               	movwf	0+(?_send_cmd)+02h
  1588  0682  3000               	movlw	high(0Ah)
  1589  0683  00F4               	movwf	(0+(?_send_cmd)+02h)+1
  1590  0684  3049               	movlw	(049h)
  1591  0685  120A  118A  20E8   	fcall	_send_cmd
              120A  118A         
  1592                           	line	208
  1593                           	
  1594  068A                     l1369:	
  1595                           ;PR18.c: 208: delay(450000);
  1596  068A  3000               	movlw	0
  1597  068B  00F3               	movwf	(?_delay+3)
  1598  068C  3006               	movlw	06h
  1599  068D  00F2               	movwf	(?_delay+2)
  1600  068E  30DD               	movlw	0DDh
  1601  068F  00F1               	movwf	(?_delay+1)
  1602  0690  30D0               	movlw	0D0h
  1603  0691  00F0               	movwf	(?_delay)
  1604                           
  1605  0692  120A  118A  20B8   	fcall	_delay
              120A  118A         
  1606                           	line	210
  1607                           	
  1608  0697                     l1371:	
  1609                           ;PR18.c: 210: send_cmd(0x4C, 732, 20);
  1610  0697  30DC               	movlw	low(02DCh)
  1611  0698  00F1               	movwf	(?_send_cmd)
  1612  0699  3002               	movlw	high(02DCh)
  1613  069A  00F2               	movwf	((?_send_cmd))+1
  1614  069B  3014               	movlw	low(014h)
  1615  069C  00F3               	movwf	0+(?_send_cmd)+02h
  1616  069D  3000               	movlw	high(014h)
  1617  069E  00F4               	movwf	(0+(?_send_cmd)+02h)+1
  1618  069F  304C               	movlw	(04Ch)
  1619  06A0  120A  118A  20E8   	fcall	_send_cmd
              120A  118A         
  1620                           	line	211
  1621                           	
  1622  06A5                     l1373:	
  1623                           ;PR18.c: 211: send_cmd(0x49, 732+200, 20);
  1624  06A5  30A4               	movlw	low(03A4h)
  1625  06A6  00F1               	movwf	(?_send_cmd)
  1626  06A7  3003               	movlw	high(03A4h)
  1627  06A8  00F2               	movwf	((?_send_cmd))+1
  1628  06A9  3014               	movlw	low(014h)
  1629  06AA  00F3               	movwf	0+(?_send_cmd)+02h
  1630  06AB  3000               	movlw	high(014h)
  1631  06AC  00F4               	movwf	(0+(?_send_cmd)+02h)+1
  1632  06AD  3049               	movlw	(049h)
  1633  06AE  120A  118A  20E8   	fcall	_send_cmd
              120A  118A         
  1634                           	line	212
  1635                           	
  1636  06B3                     l1375:	
  1637                           ;PR18.c: 212: delay(200000);
  1638  06B3  3000               	movlw	0
  1639  06B4  00F3               	movwf	(?_delay+3)
  1640  06B5  3003               	movlw	03h
  1641  06B6  00F2               	movwf	(?_delay+2)
  1642  06B7  300D               	movlw	0Dh
  1643  06B8  00F1               	movwf	(?_delay+1)
  1644  06B9  3040               	movlw	040h
  1645  06BA  00F0               	movwf	(?_delay)
  1646                           
  1647  06BB  120A  118A  20B8   	fcall	_delay
              120A  118A         
  1648                           	line	214
  1649                           	
  1650  06C0                     l1377:	
  1651                           ;PR18.c: 214: send_cmd(0x47, 732-300, 60);
  1652  06C0  30B0               	movlw	low(01B0h)
  1653  06C1  00F1               	movwf	(?_send_cmd)
  1654  06C2  3001               	movlw	high(01B0h)
  1655  06C3  00F2               	movwf	((?_send_cmd))+1
  1656  06C4  303C               	movlw	low(03Ch)
  1657  06C5  00F3               	movwf	0+(?_send_cmd)+02h
  1658  06C6  3000               	movlw	high(03Ch)
  1659  06C7  00F4               	movwf	(0+(?_send_cmd)+02h)+1
  1660  06C8  3047               	movlw	(047h)
  1661  06C9  120A  118A  20E8   	fcall	_send_cmd
              120A  118A         
  1662                           	line	215
  1663                           	
  1664  06CE                     l1379:	
  1665                           ;PR18.c: 215: send_cmd(0x48, 732-300, 30);
  1666  06CE  30B0               	movlw	low(01B0h)
  1667  06CF  00F1               	movwf	(?_send_cmd)
  1668  06D0  3001               	movlw	high(01B0h)
  1669  06D1  00F2               	movwf	((?_send_cmd))+1
  1670  06D2  301E               	movlw	low(01Eh)
  1671  06D3  00F3               	movwf	0+(?_send_cmd)+02h
  1672  06D4  3000               	movlw	high(01Eh)
  1673  06D5  00F4               	movwf	(0+(?_send_cmd)+02h)+1
  1674  06D6  3048               	movlw	(048h)
  1675  06D7  120A  118A  20E8   	fcall	_send_cmd
              120A  118A         
  1676                           	line	216
  1677                           	
  1678  06DC                     l1381:	
  1679                           ;PR18.c: 216: send_cmd(0x4A, 732, 30);
  1680  06DC  30DC               	movlw	low(02DCh)
  1681  06DD  00F1               	movwf	(?_send_cmd)
  1682  06DE  3002               	movlw	high(02DCh)
  1683  06DF  00F2               	movwf	((?_send_cmd))+1
  1684  06E0  301E               	movlw	low(01Eh)
  1685  06E1  00F3               	movwf	0+(?_send_cmd)+02h
  1686  06E2  3000               	movlw	high(01Eh)
  1687  06E3  00F4               	movwf	(0+(?_send_cmd)+02h)+1
  1688  06E4  304A               	movlw	(04Ah)
  1689  06E5  120A  118A  20E8   	fcall	_send_cmd
              120A  118A         
  1690                           	line	217
  1691                           	
  1692  06EA                     l1383:	
  1693                           ;PR18.c: 217: send_cmd(0x4C, 732+200, 30);
  1694  06EA  30A4               	movlw	low(03A4h)
  1695  06EB  00F1               	movwf	(?_send_cmd)
  1696  06EC  3003               	movlw	high(03A4h)
  1697  06ED  00F2               	movwf	((?_send_cmd))+1
  1698  06EE  301E               	movlw	low(01Eh)
  1699  06EF  00F3               	movwf	0+(?_send_cmd)+02h
  1700  06F0  3000               	movlw	high(01Eh)
  1701  06F1  00F4               	movwf	(0+(?_send_cmd)+02h)+1
  1702  06F2  304C               	movlw	(04Ch)
  1703  06F3  120A  118A  20E8   	fcall	_send_cmd
              120A  118A         
  1704                           	line	218
  1705                           	
  1706  06F8                     l1385:	
  1707                           ;PR18.c: 218: delay(300000);
  1708  06F8  3000               	movlw	0
  1709  06F9  00F3               	movwf	(?_delay+3)
  1710  06FA  3004               	movlw	04h
  1711  06FB  00F2               	movwf	(?_delay+2)
  1712  06FC  3093               	movlw	093h
  1713  06FD  00F1               	movwf	(?_delay+1)
  1714  06FE  30E0               	movlw	0E0h
  1715  06FF  00F0               	movwf	(?_delay)
  1716                           
  1717  0700  120A  118A  20B8   	fcall	_delay
              120A  118A         
  1718                           	line	221
  1719                           	
  1720  0705                     l1387:	
  1721                           ;PR18.c: 221: send_cmd(0x49, 732+60, 20);
  1722  0705  3018               	movlw	low(0318h)
  1723  0706  00F1               	movwf	(?_send_cmd)
  1724  0707  3003               	movlw	high(0318h)
  1725  0708  00F2               	movwf	((?_send_cmd))+1
  1726  0709  3014               	movlw	low(014h)
  1727  070A  00F3               	movwf	0+(?_send_cmd)+02h
  1728  070B  3000               	movlw	high(014h)
  1729  070C  00F4               	movwf	(0+(?_send_cmd)+02h)+1
  1730  070D  3049               	movlw	(049h)
  1731  070E  120A  118A  20E8   	fcall	_send_cmd
              120A  118A         
  1732                           	line	222
  1733                           	
  1734  0713                     l1389:	
  1735                           ;PR18.c: 222: send_cmd(0x4C, 732+60, 20);
  1736  0713  3018               	movlw	low(0318h)
  1737  0714  00F1               	movwf	(?_send_cmd)
  1738  0715  3003               	movlw	high(0318h)
  1739  0716  00F2               	movwf	((?_send_cmd))+1
  1740  0717  3014               	movlw	low(014h)
  1741  0718  00F3               	movwf	0+(?_send_cmd)+02h
  1742  0719  3000               	movlw	high(014h)
  1743  071A  00F4               	movwf	(0+(?_send_cmd)+02h)+1
  1744  071B  304C               	movlw	(04Ch)
  1745  071C  120A  118A  20E8   	fcall	_send_cmd
              120A  118A         
  1746                           	line	223
  1747                           	
  1748  0721                     l1391:	
  1749                           ;PR18.c: 223: delay(200000);
  1750  0721  3000               	movlw	0
  1751  0722  00F3               	movwf	(?_delay+3)
  1752  0723  3003               	movlw	03h
  1753  0724  00F2               	movwf	(?_delay+2)
  1754  0725  300D               	movlw	0Dh
  1755  0726  00F1               	movwf	(?_delay+1)
  1756  0727  3040               	movlw	040h
  1757  0728  00F0               	movwf	(?_delay)
  1758                           
  1759  0729  120A  118A  20B8   	fcall	_delay
              120A  118A         
  1760                           	line	225
  1761                           	
  1762  072E                     l1393:	
  1763                           ;PR18.c: 225: send_cmd(0x47, 732+375, 40);
  1764  072E  3053               	movlw	low(0453h)
  1765  072F  00F1               	movwf	(?_send_cmd)
  1766  0730  3004               	movlw	high(0453h)
  1767  0731  00F2               	movwf	((?_send_cmd))+1
  1768  0732  3028               	movlw	low(028h)
  1769  0733  00F3               	movwf	0+(?_send_cmd)+02h
  1770  0734  3000               	movlw	high(028h)
  1771  0735  00F4               	movwf	(0+(?_send_cmd)+02h)+1
  1772  0736  3047               	movlw	(047h)
  1773  0737  120A  118A  20E8   	fcall	_send_cmd
              120A  118A         
  1774                           	line	226
  1775                           	
  1776  073C                     l1395:	
  1777                           ;PR18.c: 226: send_cmd(0x48, 732, 20);
  1778  073C  30DC               	movlw	low(02DCh)
  1779  073D  00F1               	movwf	(?_send_cmd)
  1780  073E  3002               	movlw	high(02DCh)
  1781  073F  00F2               	movwf	((?_send_cmd))+1
  1782  0740  3014               	movlw	low(014h)
  1783  0741  00F3               	movwf	0+(?_send_cmd)+02h
  1784  0742  3000               	movlw	high(014h)
  1785  0743  00F4               	movwf	(0+(?_send_cmd)+02h)+1
  1786  0744  3048               	movlw	(048h)
  1787  0745  120A  118A  20E8   	fcall	_send_cmd
              120A  118A         
  1788                           	line	227
  1789                           	
  1790  074A                     l1397:	
  1791                           ;PR18.c: 227: send_cmd(0x4A, 732-675, 40);
  1792  074A  3039               	movlw	low(039h)
  1793  074B  00F1               	movwf	(?_send_cmd)
  1794  074C  3000               	movlw	high(039h)
  1795  074D  00F2               	movwf	((?_send_cmd))+1
  1796  074E  3028               	movlw	low(028h)
  1797  074F  00F3               	movwf	0+(?_send_cmd)+02h
  1798  0750  3000               	movlw	high(028h)
  1799  0751  00F4               	movwf	(0+(?_send_cmd)+02h)+1
  1800  0752  304A               	movlw	(04Ah)
  1801  0753  120A  118A  20E8   	fcall	_send_cmd
              120A  118A         
  1802                           	line	228
  1803                           	
  1804  0758                     l1399:	
  1805                           ;PR18.c: 228: send_cmd(0x4B, 732-300, 15);
  1806  0758  30B0               	movlw	low(01B0h)
  1807  0759  00F1               	movwf	(?_send_cmd)
  1808  075A  3001               	movlw	high(01B0h)
  1809  075B  00F2               	movwf	((?_send_cmd))+1
  1810  075C  300F               	movlw	low(0Fh)
  1811  075D  00F3               	movwf	0+(?_send_cmd)+02h
  1812  075E  3000               	movlw	high(0Fh)
  1813  075F  00F4               	movwf	(0+(?_send_cmd)+02h)+1
  1814  0760  304B               	movlw	(04Bh)
  1815  0761  120A  118A  20E8   	fcall	_send_cmd
              120A  118A         
  1816                           	line	229
  1817                           	
  1818  0766                     l1401:	
  1819                           ;PR18.c: 229: send_cmd(0x49, 732-60, 10);
  1820  0766  30A0               	movlw	low(02A0h)
  1821  0767  00F1               	movwf	(?_send_cmd)
  1822  0768  3002               	movlw	high(02A0h)
  1823  0769  00F2               	movwf	((?_send_cmd))+1
  1824  076A  300A               	movlw	low(0Ah)
  1825  076B  00F3               	movwf	0+(?_send_cmd)+02h
  1826  076C  3000               	movlw	high(0Ah)
  1827  076D  00F4               	movwf	(0+(?_send_cmd)+02h)+1
  1828  076E  3049               	movlw	(049h)
  1829  076F  120A  118A  20E8   	fcall	_send_cmd
              120A  118A         
  1830                           	line	230
  1831                           	
  1832  0774                     l1403:	
  1833                           ;PR18.c: 230: send_cmd(0x4C, 732-60, 10);
  1834  0774  30A0               	movlw	low(02A0h)
  1835  0775  00F1               	movwf	(?_send_cmd)
  1836  0776  3002               	movlw	high(02A0h)
  1837  0777  00F2               	movwf	((?_send_cmd))+1
  1838  0778  300A               	movlw	low(0Ah)
  1839  0779  00F3               	movwf	0+(?_send_cmd)+02h
  1840  077A  3000               	movlw	high(0Ah)
  1841  077B  00F4               	movwf	(0+(?_send_cmd)+02h)+1
  1842  077C  304C               	movlw	(04Ch)
  1843  077D  120A  118A  20E8   	fcall	_send_cmd
              120A  118A         
  1844                           	line	231
  1845                           	
  1846  0782                     l1405:	
  1847                           ;PR18.c: 231: delay(450000);
  1848  0782  3000               	movlw	0
  1849  0783  00F3               	movwf	(?_delay+3)
  1850  0784  3006               	movlw	06h
  1851  0785  00F2               	movwf	(?_delay+2)
  1852  0786  30DD               	movlw	0DDh
  1853  0787  00F1               	movwf	(?_delay+1)
  1854  0788  30D0               	movlw	0D0h
  1855  0789  00F0               	movwf	(?_delay)
  1856                           
  1857  078A  120A  118A  20B8   	fcall	_delay
              120A  118A         
  1858                           	line	233
  1859                           	
  1860  078F                     l1407:	
  1861                           ;PR18.c: 233: send_cmd(0x49, 732, 20);
  1862  078F  30DC               	movlw	low(02DCh)
  1863  0790  00F1               	movwf	(?_send_cmd)
  1864  0791  3002               	movlw	high(02DCh)
  1865  0792  00F2               	movwf	((?_send_cmd))+1
  1866  0793  3014               	movlw	low(014h)
  1867  0794  00F3               	movwf	0+(?_send_cmd)+02h
  1868  0795  3000               	movlw	high(014h)
  1869  0796  00F4               	movwf	(0+(?_send_cmd)+02h)+1
  1870  0797  3049               	movlw	(049h)
  1871  0798  120A  118A  20E8   	fcall	_send_cmd
              120A  118A         
  1872                           	line	234
  1873                           	
  1874  079D                     l1409:	
  1875                           ;PR18.c: 234: send_cmd(0x4C, 732-200, 20);
  1876  079D  3014               	movlw	low(0214h)
  1877  079E  00F1               	movwf	(?_send_cmd)
  1878  079F  3002               	movlw	high(0214h)
  1879  07A0  00F2               	movwf	((?_send_cmd))+1
  1880  07A1  3014               	movlw	low(014h)
  1881  07A2  00F3               	movwf	0+(?_send_cmd)+02h
  1882  07A3  3000               	movlw	high(014h)
  1883  07A4  00F4               	movwf	(0+(?_send_cmd)+02h)+1
  1884  07A5  304C               	movlw	(04Ch)
  1885  07A6  120A  118A  20E8   	fcall	_send_cmd
              120A  118A         
  1886                           	line	235
  1887                           	
  1888  07AB                     l1411:	
  1889                           ;PR18.c: 235: delay(200000);
  1890  07AB  3000               	movlw	0
  1891  07AC  00F3               	movwf	(?_delay+3)
  1892  07AD  3003               	movlw	03h
  1893  07AE  00F2               	movwf	(?_delay+2)
  1894  07AF  300D               	movlw	0Dh
  1895  07B0  00F1               	movwf	(?_delay+1)
  1896  07B1  3040               	movlw	040h
  1897  07B2  00F0               	movwf	(?_delay)
  1898                           
  1899  07B3  120A  118A  20B8   	fcall	_delay
              120A  118A         
  1900                           	line	237
  1901                           	
  1902  07B8                     l1413:	
  1903                           ;PR18.c: 237: send_cmd(0x4A, 732+300, 60);
  1904  07B8  3008               	movlw	low(0408h)
  1905  07B9  00F1               	movwf	(?_send_cmd)
  1906  07BA  3004               	movlw	high(0408h)
  1907  07BB  00F2               	movwf	((?_send_cmd))+1
  1908  07BC  303C               	movlw	low(03Ch)
  1909  07BD  00F3               	movwf	0+(?_send_cmd)+02h
  1910  07BE  3000               	movlw	high(03Ch)
  1911  07BF  00F4               	movwf	(0+(?_send_cmd)+02h)+1
  1912  07C0  304A               	movlw	(04Ah)
  1913  07C1  120A  118A  20E8   	fcall	_send_cmd
              120A  118A         
  1914                           	line	238
  1915                           	
  1916  07C6                     l1415:	
  1917                           ;PR18.c: 238: send_cmd(0x4B, 732+300, 30);
  1918  07C6  3008               	movlw	low(0408h)
  1919  07C7  00F1               	movwf	(?_send_cmd)
  1920  07C8  3004               	movlw	high(0408h)
  1921  07C9  00F2               	movwf	((?_send_cmd))+1
  1922  07CA  301E               	movlw	low(01Eh)
  1923  07CB  00F3               	movwf	0+(?_send_cmd)+02h
  1924  07CC  3000               	movlw	high(01Eh)
  1925  07CD  00F4               	movwf	(0+(?_send_cmd)+02h)+1
  1926  07CE  304B               	movlw	(04Bh)
  1927  07CF  120A  118A  20E8   	fcall	_send_cmd
              120A  118A         
  1928                           	line	239
  1929                           	
  1930  07D4                     l1417:	
  1931                           ;PR18.c: 239: send_cmd(0x47, 732, 30);
  1932  07D4  30DC               	movlw	low(02DCh)
  1933  07D5  00F1               	movwf	(?_send_cmd)
  1934  07D6  3002               	movlw	high(02DCh)
  1935  07D7  00F2               	movwf	((?_send_cmd))+1
  1936  07D8  301E               	movlw	low(01Eh)
  1937  07D9  00F3               	movwf	0+(?_send_cmd)+02h
  1938  07DA  3000               	movlw	high(01Eh)
  1939  07DB  00F4               	movwf	(0+(?_send_cmd)+02h)+1
  1940  07DC  3047               	movlw	(047h)
  1941  07DD  120A  118A  20E8   	fcall	_send_cmd
              120A  118A         
  1942                           	line	240
  1943                           	
  1944  07E2                     l1419:	
  1945                           ;PR18.c: 240: send_cmd(0x49, 732-200, 30);
  1946  07E2  3014               	movlw	low(0214h)
  1947  07E3  00F1               	movwf	(?_send_cmd)
  1948  07E4  3002               	movlw	high(0214h)
  1949  07E5  00F2               	movwf	((?_send_cmd))+1
  1950  07E6  301E               	movlw	low(01Eh)
  1951  07E7  00F3               	movwf	0+(?_send_cmd)+02h
  1952  07E8  3000               	movlw	high(01Eh)
  1953  07E9  00F4               	movwf	(0+(?_send_cmd)+02h)+1
  1954  07EA  3049               	movlw	(049h)
  1955  07EB  120A  118A  20E8   	fcall	_send_cmd
              120A  118A         
  1956                           	line	241
  1957                           	
  1958  07F0                     l1421:	
  1959                           ;PR18.c: 241: delay(300000);
  1960  07F0  3000               	movlw	0
  1961  07F1  00F3               	movwf	(?_delay+3)
  1962  07F2  3004               	movlw	04h
  1963  07F3  00F2               	movwf	(?_delay+2)
  1964  07F4  3093               	movlw	093h
  1965  07F5  00F1               	movwf	(?_delay+1)
  1966  07F6  30E0               	movlw	0E0h
  1967  07F7  00F0               	movwf	(?_delay)
  1968                           
  1969  07F8  120A  118A  20B8   	fcall	_delay
              120A  118A         
  1970  07FD  2E0D               	goto	l1351
  1971                           	line	242
  1972                           	
  1973  07FE                     l97:	
  1974                           	line	195
  1975  07FE  2E0D               	goto	l1351
  1976                           	
  1977  07FF                     l98:	
  1978                           	line	243
  1979                           	
  1980  07FF                     l99:	
  1981  07FF  0008               	return
  1982                           	opt stack 0
  1983                           GLOBAL	__end_of_mode1
  1984  0800                     	__end_of_mode1:
  1985                           	signat	_mode1,88
  1986                           	global	_mode2
  1987                           
  1988 ;; *************** function _mode2 *****************
  1989 ;; Defined at:
  1990 ;;		line 246 in file "PR18.c"
  1991 ;; Parameters:    Size  Location     Type
  1992 ;;		None
  1993 ;; Auto vars:     Size  Location     Type
  1994 ;;  value_temp      2    6[BANK0 ] int 
  1995 ;;  value           2    4[BANK0 ] int 
  1996 ;;  channel         1    8[BANK0 ] unsigned char 
  1997 ;; Return value:  Size  Location     Type
  1998 ;;		None               void
  1999 ;; Registers used:
  2000 ;;		wreg, fsr0l, fsr0h, status,2, status,0, btemp+1, pclath, cstack
  2001 ;; Tracked objects:
  2002 ;;		On entry : 0/0
  2003 ;;		On exit  : 0/0
  2004 ;;		Unchanged: 0/0
  2005 ;; Data sizes:     COMMON   BANK0   BANK1   BANK3   BANK2
  2006 ;;      Params:         0       0       0       0       0
  2007 ;;      Locals:         0       5       0       0       0
  2008 ;;      Temps:          2       0       0       0       0
  2009 ;;      Totals:         2       5       0       0       0
  2010 ;;Total ram usage:        7 bytes
  2011 ;; Hardware stack levels used:    1
  2012 ;; Hardware stack levels required when called:    3
  2013 ;; This function calls:
  2014 ;;		_lcd_clr
  2015 ;;		_lcd_goto
  2016 ;;		_send_string
  2017 ;;		_send_char
  2018 ;;		___awdiv
  2019 ;;		___awmod
  2020 ;;		_delay
  2021 ;;		_send_cmd
  2022 ;; This function is called by:
  2023 ;;		_main
  2024 ;; This function uses a non-reentrant model
  2025 ;;
  2026                           psect	text230,local,class=CODE,delta=2,merge=1
  2027                           global __ptext230
  2028  0361                     __ptext230:
  2029                           psect	text230
  2030                           	file	"PR18.c"
  2031                           	line	246
  2032                           	global	__size_of_mode2
  2033  01FC                     	__size_of_mode2	equ	__end_of_mode2-_mode2
  2034                           	
  2035  0361                     _mode2:	
  2036                           	opt	stack 4
  2037                           ; Regs used in _mode2: [wreg-fsr0h+status,2+status,0+btemp+1+pclath+cstack]
  2038                           	line	247
  2039                           	
  2040  0361                     l1423:	
  2041                           ;PR18.c: 247: char channel = 1;
  2042  0361  1283               	bcf	status, 5	;RP0=0, select bank0
  2043  0362  1303               	bcf	status, 6	;RP1=0, select bank0
  2044  0363  01A8               	clrf	(mode2@channel)
  2045  0364  1403               	bsf	status,0
  2046  0365  0DA8               	rlf	(mode2@channel),f
  2047  0366  2B67               	goto	l1425
  2048                           	line	250
  2049                           ;PR18.c: 248: int value, value_temp;
  2050                           ;PR18.c: 250: while(1)
  2051                           	
  2052  0367                     l102:	
  2053                           	line	252
  2054                           	
  2055  0367                     l1425:	
  2056                           ;PR18.c: 251: {
  2057                           ;PR18.c: 252: value_temp = 732;
  2058  0367  30DC               	movlw	low(02DCh)
  2059  0368  1283               	bcf	status, 5	;RP0=0, select bank0
  2060  0369  1303               	bcf	status, 6	;RP1=0, select bank0
  2061  036A  00A6               	movwf	(mode2@value_temp)
  2062  036B  3002               	movlw	high(02DCh)
  2063  036C  00A7               	movwf	((mode2@value_temp))+1
  2064                           	line	253
  2065                           	
  2066  036D                     l1427:	
  2067                           ;PR18.c: 253: value = 0;
  2068  036D  01A4               	clrf	(mode2@value)
  2069  036E  01A5               	clrf	(mode2@value+1)
  2070                           	line	255
  2071                           	
  2072  036F                     l1429:	
  2073                           ;PR18.c: 255: lcd_clr();
  2074  036F  120A  158A  27C6   	fcall	_lcd_clr
              120A  118A         
  2075                           	line	256
  2076                           	
  2077  0374                     l1431:	
  2078                           ;PR18.c: 256: lcd_goto(0);
  2079  0374  3000               	movlw	(0)
  2080  0375  120A  118A  204F   	fcall	_lcd_goto
              120A  118A         
  2081                           	line	257
  2082                           	
  2083  037A                     l1433:	
  2084                           ;PR18.c: 257: send_string("Channel:");
  2085  037A  302C               	movlw	((STR_7-__stringbase))&0ffh
  2086  037B  120A  118A  206C   	fcall	_send_string
              120A  118A         
  2087                           	line	258
  2088                           	
  2089  0380                     l1435:	
  2090                           ;PR18.c: 258: lcd_goto(20);
  2091  0380  3014               	movlw	(014h)
  2092  0381  120A  118A  204F   	fcall	_lcd_goto
              120A  118A         
  2093                           	line	259
  2094                           	
  2095  0386                     l1437:	
  2096                           ;PR18.c: 259: send_string("OK");
  2097  0386  3042               	movlw	((STR_8-__stringbase))&0ffh
  2098  0387  120A  118A  206C   	fcall	_send_string
              120A  118A         
  2099                           	line	261
  2100                           ;PR18.c: 261: while(RA2)
  2101  038C  2C08               	goto	l1455
  2102                           	
  2103  038D                     l104:	
  2104                           	line	263
  2105                           ;PR18.c: 262: {
  2106                           ;PR18.c: 263: if(!RA0)
  2107  038D  1805               	btfsc	(40/8),(40)&7	;volatile
  2108  038E  2B90               	goto	u751
  2109  038F  2B91               	goto	u750
  2110  0390                     u751:
  2111  0390  2B9B               	goto	l105
  2112  0391                     u750:
  2113                           	line	266
  2114                           	
  2115  0391                     l1439:	
  2116                           ;PR18.c: 264: {
  2117                           ;PR18.c: 266: if(channel > 1)
  2118  0391  3002               	movlw	(02h)
  2119  0392  0228               	subwf	(mode2@channel),w
  2120  0393  1C03               	skipc
  2121  0394  2B96               	goto	u761
  2122  0395  2B97               	goto	u760
  2123  0396                     u761:
  2124  0396  2BAC               	goto	l1447
  2125  0397                     u760:
  2126                           	line	267
  2127                           	
  2128  0397                     l1441:	
  2129                           ;PR18.c: 267: channel--;
  2130  0397  3001               	movlw	low(01h)
  2131  0398  02A8               	subwf	(mode2@channel),f
  2132  0399  2BAC               	goto	l1447
  2133                           	
  2134  039A                     l106:	
  2135                           	line	268
  2136                           ;PR18.c: 268: }
  2137  039A  2BAC               	goto	l1447
  2138                           	line	269
  2139                           	
  2140  039B                     l105:	
  2141                           ;PR18.c: 269: else if(!RA1)
  2142  039B  1885               	btfsc	(41/8),(41)&7	;volatile
  2143  039C  2B9E               	goto	u771
  2144  039D  2B9F               	goto	u770
  2145  039E                     u771:
  2146  039E  2BAC               	goto	l1447
  2147  039F                     u770:
  2148                           	line	272
  2149                           	
  2150  039F                     l1443:	
  2151                           ;PR18.c: 270: {
  2152                           ;PR18.c: 272: if(channel < 32)
  2153  039F  3020               	movlw	(020h)
  2154  03A0  0228               	subwf	(mode2@channel),w
  2155  03A1  1803               	skipnc
  2156  03A2  2BA4               	goto	u781
  2157  03A3  2BA5               	goto	u780
  2158  03A4                     u781:
  2159  03A4  2BAC               	goto	l1447
  2160  03A5                     u780:
  2161                           	line	273
  2162                           	
  2163  03A5                     l1445:	
  2164                           ;PR18.c: 273: channel++;
  2165  03A5  3001               	movlw	(01h)
  2166  03A6  00FC               	movwf	(??_mode2+0)+0
  2167  03A7  087C               	movf	(??_mode2+0)+0,w
  2168  03A8  07A8               	addwf	(mode2@channel),f
  2169  03A9  2BAC               	goto	l1447
  2170                           	
  2171  03AA                     l109:	
  2172  03AA  2BAC               	goto	l1447
  2173                           	line	274
  2174                           	
  2175  03AB                     l108:	
  2176  03AB  2BAC               	goto	l1447
  2177                           	line	277
  2178                           	
  2179  03AC                     l107:	
  2180                           	
  2181  03AC                     l1447:	
  2182                           ;PR18.c: 274: }
  2183                           ;PR18.c: 277: lcd_goto(9);
  2184  03AC  3009               	movlw	(09h)
  2185  03AD  120A  118A  204F   	fcall	_lcd_goto
              120A  118A         
  2186                           	line	278
  2187                           	
  2188  03B2                     l1449:	
  2189                           ;PR18.c: 278: if(channel < 10)
  2190  03B2  300A               	movlw	(0Ah)
  2191  03B3  1283               	bcf	status, 5	;RP0=0, select bank0
  2192  03B4  1303               	bcf	status, 6	;RP1=0, select bank0
  2193  03B5  0228               	subwf	(mode2@channel),w
  2194  03B6  1803               	skipnc
  2195  03B7  2BB9               	goto	u791
  2196  03B8  2BBA               	goto	u790
  2197  03B9                     u791:
  2198  03B9  2BC8               	goto	l1453
  2199  03BA                     u790:
  2200                           	line	281
  2201                           	
  2202  03BA                     l1451:	
  2203                           ;PR18.c: 279: {
  2204                           ;PR18.c: 281: send_char(channel + '0');
  2205  03BA  0828               	movf	(mode2@channel),w
  2206  03BB  3E30               	addlw	030h
  2207  03BC  120A  158A  27DA   	fcall	_send_char
              120A  118A         
  2208                           	line	282
  2209                           ;PR18.c: 282: send_char(' ');
  2210  03C1  3020               	movlw	(020h)
  2211  03C2  120A  158A  27DA   	fcall	_send_char
              120A  118A         
  2212                           	line	283
  2213                           ;PR18.c: 283: }
  2214  03C7  2BFA               	goto	l111
  2215                           	line	284
  2216                           	
  2217  03C8                     l110:	
  2218                           	line	287
  2219                           	
  2220  03C8                     l1453:	
  2221                           ;PR18.c: 284: else
  2222                           ;PR18.c: 285: {
  2223                           ;PR18.c: 287: send_char(channel/10 + '0');
  2224  03C8  300A               	movlw	low(0Ah)
  2225  03C9  00F7               	movwf	(?___awdiv)
  2226  03CA  3000               	movlw	high(0Ah)
  2227  03CB  00F8               	movwf	((?___awdiv))+1
  2228  03CC  1283               	bcf	status, 5	;RP0=0, select bank0
  2229  03CD  1303               	bcf	status, 6	;RP1=0, select bank0
  2230  03CE  0828               	movf	(mode2@channel),w
  2231  03CF  00FC               	movwf	(??_mode2+0)+0+0
  2232  03D0  01FD               	clrf	(??_mode2+0)+0+1
  2233  03D1  087C               	movf	0+(??_mode2+0)+0,w
  2234  03D2  00F9               	movwf	0+(?___awdiv)+02h
  2235  03D3  087D               	movf	1+(??_mode2+0)+0,w
  2236  03D4  00FA               	movwf	1+(?___awdiv)+02h
  2237  03D5  120A  118A  217F   	fcall	___awdiv
              120A  118A         
  2238  03DA  0877               	movf	(0+(?___awdiv)),w
  2239  03DB  3E30               	addlw	030h
  2240  03DC  120A  158A  27DA   	fcall	_send_char
              120A  118A         
  2241                           	line	288
  2242                           ;PR18.c: 288: send_char(channel%10 + '0');
  2243  03E1  300A               	movlw	low(0Ah)
  2244  03E2  00F0               	movwf	(?___awmod)
  2245  03E3  3000               	movlw	high(0Ah)
  2246  03E4  00F1               	movwf	((?___awmod))+1
  2247  03E5  1283               	bcf	status, 5	;RP0=0, select bank0
  2248  03E6  1303               	bcf	status, 6	;RP1=0, select bank0
  2249  03E7  0828               	movf	(mode2@channel),w
  2250  03E8  00FC               	movwf	(??_mode2+0)+0+0
  2251  03E9  01FD               	clrf	(??_mode2+0)+0+1
  2252  03EA  087C               	movf	0+(??_mode2+0)+0,w
  2253  03EB  00F2               	movwf	0+(?___awmod)+02h
  2254  03EC  087D               	movf	1+(??_mode2+0)+0,w
  2255  03ED  00F3               	movwf	1+(?___awmod)+02h
  2256  03EE  120A  118A  2119   	fcall	___awmod
              120A  118A         
  2257  03F3  0870               	movf	(0+(?___awmod)),w
  2258  03F4  3E30               	addlw	030h
  2259  03F5  120A  158A  27DA   	fcall	_send_char
              120A  118A         
  2260                           	line	289
  2261                           	
  2262  03FA                     l111:	
  2263                           	line	291
  2264                           ;PR18.c: 289: }
  2265                           ;PR18.c: 291: delay(30000);
  2266  03FA  3000               	movlw	0
  2267  03FB  00F3               	movwf	(?_delay+3)
  2268  03FC  3000               	movlw	0
  2269  03FD  00F2               	movwf	(?_delay+2)
  2270  03FE  3075               	movlw	075h
  2271  03FF  00F1               	movwf	(?_delay+1)
  2272  0400  3030               	movlw	030h
  2273  0401  00F0               	movwf	(?_delay)
  2274                           
  2275  0402  120A  118A  20B8   	fcall	_delay
              120A  118A         
  2276  0407  2C08               	goto	l1455
  2277                           	line	293
  2278                           	
  2279  0408                     l103:	
  2280                           	line	261
  2281                           	
  2282  0408                     l1455:	
  2283  0408  1283               	bcf	status, 5	;RP0=0, select bank0
  2284  0409  1303               	bcf	status, 6	;RP1=0, select bank0
  2285  040A  1905               	btfsc	(42/8),(42)&7	;volatile
  2286  040B  2C0D               	goto	u801
  2287  040C  2C0E               	goto	u800
  2288  040D                     u801:
  2289  040D  2B8D               	goto	l104
  2290  040E                     u800:
  2291  040E  2C0F               	goto	l1457
  2292                           	
  2293  040F                     l112:	
  2294                           	line	295
  2295                           	
  2296  040F                     l1457:	
  2297                           ;PR18.c: 293: }
  2298                           ;PR18.c: 295: delay(10000);
  2299  040F  3000               	movlw	0
  2300  0410  00F3               	movwf	(?_delay+3)
  2301  0411  3000               	movlw	0
  2302  0412  00F2               	movwf	(?_delay+2)
  2303  0413  3027               	movlw	027h
  2304  0414  00F1               	movwf	(?_delay+1)
  2305  0415  3010               	movlw	010h
  2306  0416  00F0               	movwf	(?_delay)
  2307                           
  2308  0417  120A  118A  20B8   	fcall	_delay
              120A  118A         
  2309                           	line	296
  2310                           ;PR18.c: 296: while(!RA2);
  2311  041C  2C1D               	goto	l113
  2312                           	
  2313  041D                     l114:	
  2314                           	
  2315  041D                     l113:	
  2316  041D  1283               	bcf	status, 5	;RP0=0, select bank0
  2317  041E  1303               	bcf	status, 6	;RP1=0, select bank0
  2318  041F  1D05               	btfss	(42/8),(42)&7	;volatile
  2319  0420  2C22               	goto	u811
  2320  0421  2C23               	goto	u810
  2321  0422                     u811:
  2322  0422  2C1D               	goto	l113
  2323  0423                     u810:
  2324  0423  2C24               	goto	l1459
  2325                           	
  2326  0424                     l115:	
  2327                           	line	297
  2328                           	
  2329  0424                     l1459:	
  2330                           ;PR18.c: 297: delay(10000);
  2331  0424  3000               	movlw	0
  2332  0425  00F3               	movwf	(?_delay+3)
  2333  0426  3000               	movlw	0
  2334  0427  00F2               	movwf	(?_delay+2)
  2335  0428  3027               	movlw	027h
  2336  0429  00F1               	movwf	(?_delay+1)
  2337  042A  3010               	movlw	010h
  2338  042B  00F0               	movwf	(?_delay)
  2339                           
  2340  042C  120A  118A  20B8   	fcall	_delay
              120A  118A         
  2341                           	line	299
  2342                           ;PR18.c: 299: lcd_clr();
  2343  0431  120A  158A  27C6   	fcall	_lcd_clr
              120A  118A         
  2344                           	line	300
  2345                           ;PR18.c: 300: lcd_goto(0);
  2346  0436  3000               	movlw	(0)
  2347  0437  120A  118A  204F   	fcall	_lcd_goto
              120A  118A         
  2348                           	line	301
  2349                           	
  2350  043C                     l1461:	
  2351                           ;PR18.c: 301: send_string("Value: ");
  2352  043C  3035               	movlw	((STR_9-__stringbase))&0ffh
  2353  043D  120A  118A  206C   	fcall	_send_string
              120A  118A         
  2354                           	line	303
  2355                           ;PR18.c: 303: while(RA2)
  2356  0442  2D31               	goto	l1487
  2357                           	
  2358  0443                     l117:	
  2359                           	line	305
  2360                           ;PR18.c: 304: {
  2361                           ;PR18.c: 305: if(!RA0)
  2362  0443  1805               	btfsc	(40/8),(40)&7	;volatile
  2363  0444  2C46               	goto	u821
  2364  0445  2C47               	goto	u820
  2365  0446                     u821:
  2366  0446  2C5E               	goto	l118
  2367  0447                     u820:
  2368                           	line	308
  2369                           	
  2370  0447                     l1463:	
  2371                           ;PR18.c: 306: {
  2372                           ;PR18.c: 308: if(value_temp > 0)
  2373  0447  0827               	movf	(mode2@value_temp+1),w
  2374  0448  3A80               	xorlw	80h
  2375  0449  00FF               	movwf	btemp+1
  2376  044A  3080               	movlw	(high(01h))^80h
  2377  044B  027F               	subwf	btemp+1,w
  2378  044C  1D03               	skipz
  2379  044D  2C50               	goto	u835
  2380  044E  3001               	movlw	low(01h)
  2381  044F  0226               	subwf	(mode2@value_temp),w
  2382  0450                     u835:
  2383                           
  2384  0450  1C03               	skipc
  2385  0451  2C53               	goto	u831
  2386  0452  2C54               	goto	u830
  2387  0453                     u831:
  2388  0453  2C79               	goto	l120
  2389  0454                     u830:
  2390                           	line	309
  2391                           	
  2392  0454                     l1465:	
  2393                           ;PR18.c: 309: value_temp--;
  2394  0454  30FF               	movlw	low(-1)
  2395  0455  1283               	bcf	status, 5	;RP0=0, select bank0
  2396  0456  1303               	bcf	status, 6	;RP1=0, select bank0
  2397  0457  07A6               	addwf	(mode2@value_temp),f
  2398  0458  1803               	skipnc
  2399  0459  0AA7               	incf	(mode2@value_temp+1),f
  2400  045A  30FF               	movlw	high(-1)
  2401  045B  07A7               	addwf	(mode2@value_temp+1),f
  2402  045C  2C79               	goto	l120
  2403                           	
  2404  045D                     l119:	
  2405                           	line	310
  2406                           ;PR18.c: 310: }
  2407  045D  2C79               	goto	l120
  2408                           	line	311
  2409                           	
  2410  045E                     l118:	
  2411                           ;PR18.c: 311: else if(!RA1)
  2412  045E  1885               	btfsc	(41/8),(41)&7	;volatile
  2413  045F  2C61               	goto	u841
  2414  0460  2C62               	goto	u840
  2415  0461                     u841:
  2416  0461  2C79               	goto	l120
  2417  0462                     u840:
  2418                           	line	314
  2419                           	
  2420  0462                     l1467:	
  2421                           ;PR18.c: 312: {
  2422                           ;PR18.c: 314: if(value_temp < 1454)
  2423  0462  0827               	movf	(mode2@value_temp+1),w
  2424  0463  3A80               	xorlw	80h
  2425  0464  00FF               	movwf	btemp+1
  2426  0465  3085               	movlw	(high(05AEh))^80h
  2427  0466  027F               	subwf	btemp+1,w
  2428  0467  1D03               	skipz
  2429  0468  2C6B               	goto	u855
  2430  0469  30AE               	movlw	low(05AEh)
  2431  046A  0226               	subwf	(mode2@value_temp),w
  2432  046B                     u855:
  2433                           
  2434  046B  1803               	skipnc
  2435  046C  2C6E               	goto	u851
  2436  046D  2C6F               	goto	u850
  2437  046E                     u851:
  2438  046E  2C79               	goto	l120
  2439  046F                     u850:
  2440                           	line	315
  2441                           	
  2442  046F                     l1469:	
  2443                           ;PR18.c: 315: value_temp++;
  2444  046F  3001               	movlw	low(01h)
  2445  0470  1283               	bcf	status, 5	;RP0=0, select bank0
  2446  0471  1303               	bcf	status, 6	;RP1=0, select bank0
  2447  0472  07A6               	addwf	(mode2@value_temp),f
  2448  0473  1803               	skipnc
  2449  0474  0AA7               	incf	(mode2@value_temp+1),f
  2450  0475  3000               	movlw	high(01h)
  2451  0476  07A7               	addwf	(mode2@value_temp+1),f
  2452  0477  2C79               	goto	l120
  2453                           	
  2454  0478                     l122:	
  2455  0478  2C79               	goto	l120
  2456                           	line	316
  2457                           	
  2458  0479                     l121:	
  2459                           	line	318
  2460                           	
  2461  0479                     l120:	
  2462                           ;PR18.c: 316: }
  2463                           ;PR18.c: 318: if(value_temp != value)
  2464  0479  1283               	bcf	status, 5	;RP0=0, select bank0
  2465  047A  1303               	bcf	status, 6	;RP1=0, select bank0
  2466  047B  0825               	movf	(mode2@value+1),w
  2467  047C  0627               	xorwf	(mode2@value_temp+1),w
  2468  047D  1D03               	skipz
  2469  047E  2C81               	goto	u865
  2470  047F  0824               	movf	(mode2@value),w
  2471  0480  0626               	xorwf	(mode2@value_temp),w
  2472  0481                     u865:
  2473                           
  2474  0481  1903               	skipnz
  2475  0482  2C84               	goto	u861
  2476  0483  2C85               	goto	u860
  2477  0484                     u861:
  2478  0484  2D23               	goto	l1485
  2479  0485                     u860:
  2480                           	line	320
  2481                           	
  2482  0485                     l1471:	
  2483                           ;PR18.c: 319: {
  2484                           ;PR18.c: 320: send_cmd(0x40|channel,value_temp,0);
  2485  0485  0827               	movf	(mode2@value_temp+1),w
  2486  0486  01F2               	clrf	(?_send_cmd+1)
  2487  0487  07F2               	addwf	(?_send_cmd+1)
  2488  0488  0826               	movf	(mode2@value_temp),w
  2489  0489  01F1               	clrf	(?_send_cmd)
  2490  048A  07F1               	addwf	(?_send_cmd)
  2491                           
  2492  048B  3000               	movlw	low(0)
  2493  048C  00F3               	movwf	0+(?_send_cmd)+02h
  2494  048D  3000               	movlw	high(0)
  2495  048E  00F4               	movwf	(0+(?_send_cmd)+02h)+1
  2496  048F  0828               	movf	(mode2@channel),w
  2497  0490  3840               	iorlw	040h
  2498  0491  120A  118A  20E8   	fcall	_send_cmd
              120A  118A         
  2499                           	line	321
  2500                           	
  2501  0496                     l1473:	
  2502                           ;PR18.c: 321: value = value_temp;
  2503  0496  1283               	bcf	status, 5	;RP0=0, select bank0
  2504  0497  1303               	bcf	status, 6	;RP1=0, select bank0
  2505  0498  0827               	movf	(mode2@value_temp+1),w
  2506  0499  01A5               	clrf	(mode2@value+1)
  2507  049A  07A5               	addwf	(mode2@value+1)
  2508  049B  0826               	movf	(mode2@value_temp),w
  2509  049C  01A4               	clrf	(mode2@value)
  2510  049D  07A4               	addwf	(mode2@value)
  2511                           
  2512                           	line	324
  2513                           	
  2514  049E                     l1475:	
  2515                           ;PR18.c: 324: lcd_goto(7);
  2516  049E  3007               	movlw	(07h)
  2517  049F  120A  118A  204F   	fcall	_lcd_goto
              120A  118A         
  2518                           	line	325
  2519                           	
  2520  04A4                     l1477:	
  2521                           ;PR18.c: 325: send_char('0' + (value / 1000));
  2522  04A4  30E8               	movlw	low(03E8h)
  2523  04A5  00F7               	movwf	(?___awdiv)
  2524  04A6  3003               	movlw	high(03E8h)
  2525  04A7  00F8               	movwf	((?___awdiv))+1
  2526  04A8  1283               	bcf	status, 5	;RP0=0, select bank0
  2527  04A9  1303               	bcf	status, 6	;RP1=0, select bank0
  2528  04AA  0825               	movf	(mode2@value+1),w
  2529  04AB  01FA               	clrf	1+(?___awdiv)+02h
  2530  04AC  07FA               	addwf	1+(?___awdiv)+02h
  2531  04AD  0824               	movf	(mode2@value),w
  2532  04AE  01F9               	clrf	0+(?___awdiv)+02h
  2533  04AF  07F9               	addwf	0+(?___awdiv)+02h
  2534                           
  2535  04B0  120A  118A  217F   	fcall	___awdiv
              120A  118A         
  2536  04B5  0877               	movf	(0+(?___awdiv)),w
  2537  04B6  3E30               	addlw	030h
  2538  04B7  120A  158A  27DA   	fcall	_send_char
              120A  118A         
  2539                           	line	326
  2540                           	
  2541  04BC                     l1479:	
  2542                           ;PR18.c: 326: send_char('0' + (value % 1000) / 100);
  2543  04BC  3064               	movlw	low(064h)
  2544  04BD  00F7               	movwf	(?___awdiv)
  2545  04BE  3000               	movlw	high(064h)
  2546  04BF  00F8               	movwf	((?___awdiv))+1
  2547  04C0  1283               	bcf	status, 5	;RP0=0, select bank0
  2548  04C1  1303               	bcf	status, 6	;RP1=0, select bank0
  2549  04C2  0825               	movf	(mode2@value+1),w
  2550  04C3  01F3               	clrf	1+(?___awmod)+02h
  2551  04C4  07F3               	addwf	1+(?___awmod)+02h
  2552  04C5  0824               	movf	(mode2@value),w
  2553  04C6  01F2               	clrf	0+(?___awmod)+02h
  2554  04C7  07F2               	addwf	0+(?___awmod)+02h
  2555                           
  2556  04C8  30E8               	movlw	low(03E8h)
  2557  04C9  00F0               	movwf	(?___awmod)
  2558  04CA  3003               	movlw	high(03E8h)
  2559  04CB  00F1               	movwf	((?___awmod))+1
  2560  04CC  120A  118A  2119   	fcall	___awmod
              120A  118A         
  2561  04D1  0871               	movf	(1+(?___awmod)),w
  2562  04D2  01FA               	clrf	1+(?___awdiv)+02h
  2563  04D3  07FA               	addwf	1+(?___awdiv)+02h
  2564  04D4  0870               	movf	(0+(?___awmod)),w
  2565  04D5  01F9               	clrf	0+(?___awdiv)+02h
  2566  04D6  07F9               	addwf	0+(?___awdiv)+02h
  2567                           
  2568  04D7  120A  118A  217F   	fcall	___awdiv
              120A  118A         
  2569  04DC  0877               	movf	(0+(?___awdiv)),w
  2570  04DD  3E30               	addlw	030h
  2571  04DE  120A  158A  27DA   	fcall	_send_char
              120A  118A         
  2572                           	line	327
  2573                           	
  2574  04E3                     l1481:	
  2575                           ;PR18.c: 327: send_char('0' + (value % 100) / 10);
  2576  04E3  300A               	movlw	low(0Ah)
  2577  04E4  00F7               	movwf	(?___awdiv)
  2578  04E5  3000               	movlw	high(0Ah)
  2579  04E6  00F8               	movwf	((?___awdiv))+1
  2580  04E7  1283               	bcf	status, 5	;RP0=0, select bank0
  2581  04E8  1303               	bcf	status, 6	;RP1=0, select bank0
  2582  04E9  0825               	movf	(mode2@value+1),w
  2583  04EA  01F3               	clrf	1+(?___awmod)+02h
  2584  04EB  07F3               	addwf	1+(?___awmod)+02h
  2585  04EC  0824               	movf	(mode2@value),w
  2586  04ED  01F2               	clrf	0+(?___awmod)+02h
  2587  04EE  07F2               	addwf	0+(?___awmod)+02h
  2588                           
  2589  04EF  3064               	movlw	low(064h)
  2590  04F0  00F0               	movwf	(?___awmod)
  2591  04F1  3000               	movlw	high(064h)
  2592  04F2  00F1               	movwf	((?___awmod))+1
  2593  04F3  120A  118A  2119   	fcall	___awmod
              120A  118A         
  2594  04F8  0871               	movf	(1+(?___awmod)),w
  2595  04F9  01FA               	clrf	1+(?___awdiv)+02h
  2596  04FA  07FA               	addwf	1+(?___awdiv)+02h
  2597  04FB  0870               	movf	(0+(?___awmod)),w
  2598  04FC  01F9               	clrf	0+(?___awdiv)+02h
  2599  04FD  07F9               	addwf	0+(?___awdiv)+02h
  2600                           
  2601  04FE  120A  118A  217F   	fcall	___awdiv
              120A  118A         
  2602  0503  0877               	movf	(0+(?___awdiv)),w
  2603  0504  3E30               	addlw	030h
  2604  0505  120A  158A  27DA   	fcall	_send_char
              120A  118A         
  2605                           	line	328
  2606                           	
  2607  050A                     l1483:	
  2608                           ;PR18.c: 328: send_char('0' + (value % 10));
  2609  050A  300A               	movlw	low(0Ah)
  2610  050B  00F0               	movwf	(?___awmod)
  2611  050C  3000               	movlw	high(0Ah)
  2612  050D  00F1               	movwf	((?___awmod))+1
  2613  050E  1283               	bcf	status, 5	;RP0=0, select bank0
  2614  050F  1303               	bcf	status, 6	;RP1=0, select bank0
  2615  0510  0825               	movf	(mode2@value+1),w
  2616  0511  01F3               	clrf	1+(?___awmod)+02h
  2617  0512  07F3               	addwf	1+(?___awmod)+02h
  2618  0513  0824               	movf	(mode2@value),w
  2619  0514  01F2               	clrf	0+(?___awmod)+02h
  2620  0515  07F2               	addwf	0+(?___awmod)+02h
  2621                           
  2622  0516  120A  118A  2119   	fcall	___awmod
              120A  118A         
  2623  051B  0870               	movf	(0+(?___awmod)),w
  2624  051C  3E30               	addlw	030h
  2625  051D  120A  158A  27DA   	fcall	_send_char
              120A  118A         
  2626  0522  2D23               	goto	l1485
  2627                           	line	329
  2628                           	
  2629  0523                     l123:	
  2630                           	line	331
  2631                           	
  2632  0523                     l1485:	
  2633                           ;PR18.c: 329: }
  2634                           ;PR18.c: 331: delay(15000);
  2635  0523  3000               	movlw	0
  2636  0524  00F3               	movwf	(?_delay+3)
  2637  0525  3000               	movlw	0
  2638  0526  00F2               	movwf	(?_delay+2)
  2639  0527  303A               	movlw	03Ah
  2640  0528  00F1               	movwf	(?_delay+1)
  2641  0529  3098               	movlw	098h
  2642  052A  00F0               	movwf	(?_delay)
  2643                           
  2644  052B  120A  118A  20B8   	fcall	_delay
              120A  118A         
  2645  0530  2D31               	goto	l1487
  2646                           	line	333
  2647                           	
  2648  0531                     l116:	
  2649                           	line	303
  2650                           	
  2651  0531                     l1487:	
  2652  0531  1283               	bcf	status, 5	;RP0=0, select bank0
  2653  0532  1303               	bcf	status, 6	;RP1=0, select bank0
  2654  0533  1905               	btfsc	(42/8),(42)&7	;volatile
  2655  0534  2D36               	goto	u871
  2656  0535  2D37               	goto	u870
  2657  0536                     u871:
  2658  0536  2C43               	goto	l117
  2659  0537                     u870:
  2660  0537  2D38               	goto	l1489
  2661                           	
  2662  0538                     l124:	
  2663                           	line	335
  2664                           	
  2665  0538                     l1489:	
  2666                           ;PR18.c: 333: }
  2667                           ;PR18.c: 335: delay(10000);
  2668  0538  3000               	movlw	0
  2669  0539  00F3               	movwf	(?_delay+3)
  2670  053A  3000               	movlw	0
  2671  053B  00F2               	movwf	(?_delay+2)
  2672  053C  3027               	movlw	027h
  2673  053D  00F1               	movwf	(?_delay+1)
  2674  053E  3010               	movlw	010h
  2675  053F  00F0               	movwf	(?_delay)
  2676                           
  2677  0540  120A  118A  20B8   	fcall	_delay
              120A  118A         
  2678                           	line	336
  2679                           ;PR18.c: 336: while(!RA2);
  2680  0545  2D46               	goto	l125
  2681                           	
  2682  0546                     l126:	
  2683                           	
  2684  0546                     l125:	
  2685  0546  1283               	bcf	status, 5	;RP0=0, select bank0
  2686  0547  1303               	bcf	status, 6	;RP1=0, select bank0
  2687  0548  1D05               	btfss	(42/8),(42)&7	;volatile
  2688  0549  2D4B               	goto	u881
  2689  054A  2D4C               	goto	u880
  2690  054B                     u881:
  2691  054B  2D46               	goto	l125
  2692  054C                     u880:
  2693  054C  2D4D               	goto	l1491
  2694                           	
  2695  054D                     l127:	
  2696                           	line	337
  2697                           	
  2698  054D                     l1491:	
  2699                           ;PR18.c: 337: delay(10000);
  2700  054D  3000               	movlw	0
  2701  054E  00F3               	movwf	(?_delay+3)
  2702  054F  3000               	movlw	0
  2703  0550  00F2               	movwf	(?_delay+2)
  2704  0551  3027               	movlw	027h
  2705  0552  00F1               	movwf	(?_delay+1)
  2706  0553  3010               	movlw	010h
  2707  0554  00F0               	movwf	(?_delay)
  2708                           
  2709  0555  120A  118A  20B8   	fcall	_delay
              120A  118A         
  2710  055A  2B67               	goto	l1425
  2711                           	line	338
  2712                           	
  2713  055B                     l128:	
  2714                           	line	250
  2715  055B  2B67               	goto	l1425
  2716                           	
  2717  055C                     l129:	
  2718                           	line	339
  2719                           	
  2720  055C                     l130:	
  2721  055C  0008               	return
  2722                           	opt stack 0
  2723                           GLOBAL	__end_of_mode2
  2724  055D                     	__end_of_mode2:
  2725                           	signat	_mode2,88
  2726                           	global	_lcd_clr
  2727                           
  2728 ;; *************** function _lcd_clr *****************
  2729 ;; Defined at:
  2730 ;;		line 382 in file "PR18.c"
  2731 ;; Parameters:    Size  Location     Type
  2732 ;;		None
  2733 ;; Auto vars:     Size  Location     Type
  2734 ;;		None
  2735 ;; Return value:  Size  Location     Type
  2736 ;;		None               void
  2737 ;; Registers used:
  2738 ;;		wreg, status,2, status,0, pclath, cstack
  2739 ;; Tracked objects:
  2740 ;;		On entry : 0/0
  2741 ;;		On exit  : 0/0
  2742 ;;		Unchanged: 0/0
  2743 ;; Data sizes:     COMMON   BANK0   BANK1   BANK3   BANK2
  2744 ;;      Params:         0       0       0       0       0
  2745 ;;      Locals:         0       0       0       0       0
  2746 ;;      Temps:          0       0       0       0       0
  2747 ;;      Totals:         0       0       0       0       0
  2748 ;;Total ram usage:        0 bytes
  2749 ;; Hardware stack levels used:    1
  2750 ;; Hardware stack levels required when called:    2
  2751 ;; This function calls:
  2752 ;;		_send_config
  2753 ;;		_delay
  2754 ;; This function is called by:
  2755 ;;		_main
  2756 ;;		_mode2
  2757 ;; This function uses a non-reentrant model
  2758 ;;
  2759                           psect	text231,local,class=CODE,delta=2,merge=1
  2760                           global __ptext231
  2761  0FC6                     __ptext231:
  2762                           psect	text231
  2763                           	file	"PR18.c"
  2764                           	line	382
  2765                           	global	__size_of_lcd_clr
  2766  0014                     	__size_of_lcd_clr	equ	__end_of_lcd_clr-_lcd_clr
  2767                           	
  2768  0FC6                     _lcd_clr:	
  2769                           	opt	stack 4
  2770                           ; Regs used in _lcd_clr: [wreg+status,2+status,0+pclath+cstack]
  2771                           	line	383
  2772                           	
  2773  0FC6                     l1305:	
  2774                           ;PR18.c: 383: send_config(0x01);
  2775  0FC6  3001               	movlw	(01h)
  2776  0FC7  120A  118A  2092   	fcall	_send_config
              120A  158A         
  2777                           	line	384
  2778                           ;PR18.c: 384: delay(600);
  2779  0FCC  3000               	movlw	0
  2780  0FCD  00F3               	movwf	(?_delay+3)
  2781  0FCE  3000               	movlw	0
  2782  0FCF  00F2               	movwf	(?_delay+2)
  2783  0FD0  3002               	movlw	02h
  2784  0FD1  00F1               	movwf	(?_delay+1)
  2785  0FD2  3058               	movlw	058h
  2786  0FD3  00F0               	movwf	(?_delay)
  2787                           
  2788  0FD4  120A  118A  20B8   	fcall	_delay
              120A  158A         
  2789                           	line	385
  2790                           	
  2791  0FD9                     l149:	
  2792  0FD9  0008               	return
  2793                           	opt stack 0
  2794                           GLOBAL	__end_of_lcd_clr
  2795  0FDA                     	__end_of_lcd_clr:
  2796                           	signat	_lcd_clr,88
  2797                           	global	_lcd_goto
  2798                           
  2799 ;; *************** function _lcd_goto *****************
  2800 ;; Defined at:
  2801 ;;		line 369 in file "PR18.c"
  2802 ;; Parameters:    Size  Location     Type
  2803 ;;  data            1    wreg     unsigned char 
  2804 ;; Auto vars:     Size  Location     Type
  2805 ;;  data            1   10[COMMON] unsigned char 
  2806 ;; Return value:  Size  Location     Type
  2807 ;;		None               void
  2808 ;; Registers used:
  2809 ;;		wreg, status,2, status,0, pclath, cstack
  2810 ;; Tracked objects:
  2811 ;;		On entry : 0/0
  2812 ;;		On exit  : 0/0
  2813 ;;		Unchanged: 0/0
  2814 ;; Data sizes:     COMMON   BANK0   BANK1   BANK3   BANK2
  2815 ;;      Params:         0       0       0       0       0
  2816 ;;      Locals:         1       0       0       0       0
  2817 ;;      Temps:          1       0       0       0       0
  2818 ;;      Totals:         2       0       0       0       0
  2819 ;;Total ram usage:        2 bytes
  2820 ;; Hardware stack levels used:    1
  2821 ;; Hardware stack levels required when called:    2
  2822 ;; This function calls:
  2823 ;;		_send_config
  2824 ;; This function is called by:
  2825 ;;		_main
  2826 ;;		_mode1
  2827 ;;		_mode2
  2828 ;; This function uses a non-reentrant model
  2829 ;;
  2830                           psect	text232,local,class=CODE,delta=2,merge=1
  2831                           global __ptext232
  2832  004F                     __ptext232:
  2833                           psect	text232
  2834                           	file	"PR18.c"
  2835                           	line	369
  2836                           	global	__size_of_lcd_goto
  2837  001D                     	__size_of_lcd_goto	equ	__end_of_lcd_goto-_lcd_goto
  2838                           	
  2839  004F                     _lcd_goto:	
  2840                           	opt	stack 4
  2841                           ; Regs used in _lcd_goto: [wreg+status,2+status,0+pclath+cstack]
  2842                           ;lcd_goto@data stored from wreg
  2843  004F  00FA               	movwf	(lcd_goto@data)
  2844                           	line	370
  2845                           	
  2846  0050                     l1307:	
  2847                           ;PR18.c: 370: if(data<16)
  2848  0050  3010               	movlw	(010h)
  2849  0051  027A               	subwf	(lcd_goto@data),w
  2850  0052  1803               	skipnc
  2851  0053  2855               	goto	u721
  2852  0054  2856               	goto	u720
  2853  0055                     u721:
  2854  0055  285E               	goto	l1311
  2855  0056                     u720:
  2856                           	line	372
  2857                           	
  2858  0056                     l1309:	
  2859                           ;PR18.c: 371: {
  2860                           ;PR18.c: 372: send_config(0x80+data);
  2861  0056  087A               	movf	(lcd_goto@data),w
  2862  0057  3E80               	addlw	080h
  2863  0058  120A  118A  2092   	fcall	_send_config
              120A  118A         
  2864                           	line	373
  2865                           ;PR18.c: 373: }
  2866  005D  286B               	goto	l146
  2867                           	line	374
  2868                           	
  2869  005E                     l144:	
  2870                           	line	376
  2871                           	
  2872  005E                     l1311:	
  2873                           ;PR18.c: 374: else
  2874                           ;PR18.c: 375: {
  2875                           ;PR18.c: 376: data=data-20;
  2876  005E  087A               	movf	(lcd_goto@data),w
  2877  005F  3EEC               	addlw	0ECh
  2878  0060  00F9               	movwf	(??_lcd_goto+0)+0
  2879  0061  0879               	movf	(??_lcd_goto+0)+0,w
  2880  0062  00FA               	movwf	(lcd_goto@data)
  2881                           	line	377
  2882                           	
  2883  0063                     l1313:	
  2884                           ;PR18.c: 377: send_config(0xc0+data);
  2885  0063  087A               	movf	(lcd_goto@data),w
  2886  0064  3EC0               	addlw	0C0h
  2887  0065  120A  118A  2092   	fcall	_send_config
              120A  118A         
  2888  006A  286B               	goto	l146
  2889                           	line	378
  2890                           	
  2891  006B                     l145:	
  2892                           	line	379
  2893                           	
  2894  006B                     l146:	
  2895  006B  0008               	return
  2896                           	opt stack 0
  2897                           GLOBAL	__end_of_lcd_goto
  2898  006C                     	__end_of_lcd_goto:
  2899                           	signat	_lcd_goto,4216
  2900                           	global	_send_config
  2901                           
  2902 ;; *************** function _send_config *****************
  2903 ;; Defined at:
  2904 ;;		line 347 in file "PR18.c"
  2905 ;; Parameters:    Size  Location     Type
  2906 ;;  data            1    wreg     unsigned char 
  2907 ;; Auto vars:     Size  Location     Type
  2908 ;;  data            1    8[COMMON] unsigned char 
  2909 ;; Return value:  Size  Location     Type
  2910 ;;		None               void
  2911 ;; Registers used:
  2912 ;;		wreg, status,2, status,0, pclath, cstack
  2913 ;; Tracked objects:
  2914 ;;		On entry : 0/0
  2915 ;;		On exit  : 0/0
  2916 ;;		Unchanged: 0/0
  2917 ;; Data sizes:     COMMON   BANK0   BANK1   BANK3   BANK2
  2918 ;;      Params:         0       0       0       0       0
  2919 ;;      Locals:         1       0       0       0       0
  2920 ;;      Temps:          0       0       0       0       0
  2921 ;;      Totals:         1       0       0       0       0
  2922 ;;Total ram usage:        1 bytes
  2923 ;; Hardware stack levels used:    1
  2924 ;; Hardware stack levels required when called:    1
  2925 ;; This function calls:
  2926 ;;		_delay
  2927 ;; This function is called by:
  2928 ;;		_main
  2929 ;;		_lcd_goto
  2930 ;;		_lcd_clr
  2931 ;; This function uses a non-reentrant model
  2932 ;;
  2933                           psect	text233,local,class=CODE,delta=2,merge=1
  2934                           global __ptext233
  2935  0092                     __ptext233:
  2936                           psect	text233
  2937                           	file	"PR18.c"
  2938                           	line	347
  2939                           	global	__size_of_send_config
  2940  0026                     	__size_of_send_config	equ	__end_of_send_config-_send_config
  2941                           	
  2942  0092                     _send_config:	
  2943                           	opt	stack 4
  2944                           ; Regs used in _send_config: [wreg+status,2+status,0+pclath+cstack]
  2945                           ;send_config@data stored from wreg
  2946  0092  00F8               	movwf	(send_config@data)
  2947                           	line	348
  2948                           	
  2949  0093                     l1227:	
  2950                           ;PR18.c: 348: RC4=0;
  2951  0093  1283               	bcf	status, 5	;RP0=0, select bank0
  2952  0094  1303               	bcf	status, 6	;RP1=0, select bank0
  2953  0095  1207               	bcf	(60/8),(60)&7	;volatile
  2954                           	line	349
  2955                           ;PR18.c: 349: RC3=0;
  2956  0096  1187               	bcf	(59/8),(59)&7	;volatile
  2957                           	line	350
  2958                           	
  2959  0097                     l1229:	
  2960                           ;PR18.c: 350: PORTB=data;
  2961  0097  0878               	movf	(send_config@data),w
  2962  0098  0086               	movwf	(6)	;volatile
  2963                           	line	351
  2964                           	
  2965  0099                     l1231:	
  2966                           ;PR18.c: 351: RC5=1;
  2967  0099  1687               	bsf	(61/8),(61)&7	;volatile
  2968                           	line	352
  2969                           	
  2970  009A                     l1233:	
  2971                           ;PR18.c: 352: delay(50);
  2972  009A  3000               	movlw	0
  2973  009B  00F3               	movwf	(?_delay+3)
  2974  009C  3000               	movlw	0
  2975  009D  00F2               	movwf	(?_delay+2)
  2976  009E  3000               	movlw	0
  2977  009F  00F1               	movwf	(?_delay+1)
  2978  00A0  3032               	movlw	032h
  2979  00A1  00F0               	movwf	(?_delay)
  2980                           
  2981  00A2  120A  118A  20B8   	fcall	_delay
              120A  118A         
  2982                           	line	353
  2983                           	
  2984  00A7                     l1235:	
  2985                           ;PR18.c: 353: RC5=0;
  2986  00A7  1283               	bcf	status, 5	;RP0=0, select bank0
  2987  00A8  1303               	bcf	status, 6	;RP1=0, select bank0
  2988  00A9  1287               	bcf	(61/8),(61)&7	;volatile
  2989                           	line	354
  2990                           	
  2991  00AA                     l1237:	
  2992                           ;PR18.c: 354: delay(50);
  2993  00AA  3000               	movlw	0
  2994  00AB  00F3               	movwf	(?_delay+3)
  2995  00AC  3000               	movlw	0
  2996  00AD  00F2               	movwf	(?_delay+2)
  2997  00AE  3000               	movlw	0
  2998  00AF  00F1               	movwf	(?_delay+1)
  2999  00B0  3032               	movlw	032h
  3000  00B1  00F0               	movwf	(?_delay)
  3001                           
  3002  00B2  120A  118A  20B8   	fcall	_delay
              120A  118A         
  3003                           	line	355
  3004                           	
  3005  00B7                     l138:	
  3006  00B7  0008               	return
  3007                           	opt stack 0
  3008                           GLOBAL	__end_of_send_config
  3009  00B8                     	__end_of_send_config:
  3010                           	signat	_send_config,4216
  3011                           	global	_send_string
  3012                           
  3013 ;; *************** function _send_string *****************
  3014 ;; Defined at:
  3015 ;;		line 388 in file "PR18.c"
  3016 ;; Parameters:    Size  Location     Type
  3017 ;;  s               1    wreg     PTR const unsigned char 
  3018 ;;		 -> STR_9(8), STR_8(3), STR_7(9), STR_6(3), 
  3019 ;;		 -> STR_5(15), STR_4(15), STR_3(3), STR_2(5), 
  3020 ;;		 -> STR_1(13), 
  3021 ;; Auto vars:     Size  Location     Type
  3022 ;;  s               1   10[COMMON] PTR const unsigned char 
  3023 ;;		 -> STR_9(8), STR_8(3), STR_7(9), STR_6(3), 
  3024 ;;		 -> STR_5(15), STR_4(15), STR_3(3), STR_2(5), 
  3025 ;;		 -> STR_1(13), 
  3026 ;; Return value:  Size  Location     Type
  3027 ;;		None               void
  3028 ;; Registers used:
  3029 ;;		wreg, fsr0l, fsr0h, status,2, status,0, pclath, cstack
  3030 ;; Tracked objects:
  3031 ;;		On entry : 0/0
  3032 ;;		On exit  : 0/0
  3033 ;;		Unchanged: 0/0
  3034 ;; Data sizes:     COMMON   BANK0   BANK1   BANK3   BANK2
  3035 ;;      Params:         0       0       0       0       0
  3036 ;;      Locals:         1       0       0       0       0
  3037 ;;      Temps:          1       0       0       0       0
  3038 ;;      Totals:         2       0       0       0       0
  3039 ;;Total ram usage:        2 bytes
  3040 ;; Hardware stack levels used:    1
  3041 ;; Hardware stack levels required when called:    2
  3042 ;; This function calls:
  3043 ;;		_send_char
  3044 ;; This function is called by:
  3045 ;;		_main
  3046 ;;		_mode1
  3047 ;;		_mode2
  3048 ;; This function uses a non-reentrant model
  3049 ;;
  3050                           psect	text234,local,class=CODE,delta=2,merge=1
  3051                           global __ptext234
  3052  006C                     __ptext234:
  3053                           psect	text234
  3054                           	file	"PR18.c"
  3055                           	line	388
  3056                           	global	__size_of_send_string
  3057  0026                     	__size_of_send_string	equ	__end_of_send_string-_send_string
  3058                           	
  3059  006C                     _send_string:	
  3060                           	opt	stack 4
  3061                           ; Regs used in _send_string: [wreg-fsr0h+status,2+status,0+pclath+cstack]
  3062                           ;send_string@s stored from wreg
  3063  006C  00FA               	movwf	(send_string@s)
  3064                           	line	389
  3065                           	
  3066  006D                     l1315:	
  3067                           ;PR18.c: 389: while (s && *s)send_char (*s++);
  3068  006D  287F               	goto	l1321
  3069                           	
  3070  006E                     l153:	
  3071                           	
  3072  006E                     l1317:	
  3073  006E  087A               	movf	(send_string@s),w
  3074  006F  0084               	movwf	fsr0
  3075  0070  120A  118A  2003   	fcall	stringdir
              120A  118A         
  3076  0075  120A  158A  27DA   	fcall	_send_char
              120A  118A         
  3077                           	
  3078  007A                     l1319:	
  3079  007A  3001               	movlw	(01h)
  3080  007B  00F9               	movwf	(??_send_string+0)+0
  3081  007C  0879               	movf	(??_send_string+0)+0,w
  3082  007D  07FA               	addwf	(send_string@s),f
  3083  007E  287F               	goto	l1321
  3084                           	
  3085  007F                     l152:	
  3086                           	
  3087  007F                     l1321:	
  3088  007F  087A               	movf	(send_string@s),w
  3089  0080  1D03               	skipz
  3090  0081  2883               	goto	u730
  3091  0082  2891               	goto	l157
  3092  0083                     u730:
  3093                           	
  3094  0083                     l1323:	
  3095  0083  087A               	movf	(send_string@s),w
  3096  0084  0084               	movwf	fsr0
  3097  0085  120A  118A  2003   	fcall	stringdir
              120A  118A         
  3098  008A  3800               	iorlw	0
  3099  008B  1D03               	skipz
  3100  008C  288E               	goto	u741
  3101  008D  288F               	goto	u740
  3102  008E                     u741:
  3103  008E  286E               	goto	l1317
  3104  008F                     u740:
  3105  008F  2891               	goto	l157
  3106                           	
  3107  0090                     l155:	
  3108  0090  2891               	goto	l157
  3109                           	
  3110  0091                     l156:	
  3111                           	line	390
  3112                           	
  3113  0091                     l157:	
  3114  0091  0008               	return
  3115                           	opt stack 0
  3116                           GLOBAL	__end_of_send_string
  3117  0092                     	__end_of_send_string:
  3118                           	signat	_send_string,4216
  3119                           	global	_send_cmd
  3120                           
  3121 ;; *************** function _send_cmd *****************
  3122 ;; Defined at:
  3123 ;;		line 399 in file "PR18.c"
  3124 ;; Parameters:    Size  Location     Type
  3125 ;;  num             1    wreg     unsigned char 
  3126 ;;  data            2    1[COMMON] unsigned int 
  3127 ;;  ramp            2    3[COMMON] unsigned int 
  3128 ;; Auto vars:     Size  Location     Type
  3129 ;;  num             1    8[COMMON] unsigned char 
  3130 ;;  lower_byte      1   10[COMMON] unsigned char 
  3131 ;;  higher_byte     1    9[COMMON] unsigned char 
  3132 ;; Return value:  Size  Location     Type
  3133 ;;		None               void
  3134 ;; Registers used:
  3135 ;;		wreg, status,2, status,0, pclath, cstack
  3136 ;; Tracked objects:
  3137 ;;		On entry : 0/0
  3138 ;;		On exit  : 0/0
  3139 ;;		Unchanged: 0/0
  3140 ;; Data sizes:     COMMON   BANK0   BANK1   BANK3   BANK2
  3141 ;;      Params:         4       0       0       0       0
  3142 ;;      Locals:         3       0       0       0       0
  3143 ;;      Temps:          3       0       0       0       0
  3144 ;;      Totals:        10       0       0       0       0
  3145 ;;Total ram usage:       10 bytes
  3146 ;; Hardware stack levels used:    1
  3147 ;; Hardware stack levels required when called:    1
  3148 ;; This function calls:
  3149 ;;		_uart_send
  3150 ;; This function is called by:
  3151 ;;		_main
  3152 ;;		_mode1
  3153 ;;		_mode2
  3154 ;; This function uses a non-reentrant model
  3155 ;;
  3156                           psect	text235,local,class=CODE,delta=2,merge=1
  3157                           global __ptext235
  3158  00E8                     __ptext235:
  3159                           psect	text235
  3160                           	file	"PR18.c"
  3161                           	line	399
  3162                           	global	__size_of_send_cmd
  3163  0031                     	__size_of_send_cmd	equ	__end_of_send_cmd-_send_cmd
  3164                           	
  3165  00E8                     _send_cmd:	
  3166                           	opt	stack 5
  3167                           ; Regs used in _send_cmd: [wreg+status,2+status,0+pclath+cstack]
  3168                           ;send_cmd@num stored from wreg
  3169  00E8  00F8               	movwf	(send_cmd@num)
  3170                           	line	400
  3171                           	
  3172  00E9                     l1239:	
  3173                           ;PR18.c: 400: unsigned char higher_byte=0, lower_byte=0;
  3174  00E9  01F9               	clrf	(send_cmd@higher_byte)
  3175  00EA  01FA               	clrf	(send_cmd@lower_byte)
  3176                           	line	404
  3177                           	
  3178  00EB                     l1241:	
  3179                           ;PR18.c: 404: higher_byte=(data>>6)&0x003f;
  3180  00EB  0872               	movf	(send_cmd@data+1),w
  3181  00EC  00F6               	movwf	(??_send_cmd+0)+0+1
  3182  00ED  0871               	movf	(send_cmd@data),w
  3183  00EE  00F5               	movwf	(??_send_cmd+0)+0
  3184  00EF  3006               	movlw	06h
  3185  00F0                     u615:
  3186  00F0  1003               	clrc
  3187  00F1  0CF6               	rrf	(??_send_cmd+0)+1,f
  3188  00F2  0CF5               	rrf	(??_send_cmd+0)+0,f
  3189  00F3  3EFF               	addlw	-1
  3190  00F4  1D03               	skipz
  3191  00F5  28F0               	goto	u615
  3192  00F6  0875               	movf	0+(??_send_cmd+0)+0,w
  3193  00F7  393F               	andlw	03Fh
  3194  00F8  00F7               	movwf	(??_send_cmd+2)+0
  3195  00F9  0877               	movf	(??_send_cmd+2)+0,w
  3196  00FA  00F9               	movwf	(send_cmd@higher_byte)
  3197                           	line	405
  3198                           	
  3199  00FB                     l1243:	
  3200                           ;PR18.c: 405: lower_byte=data&0x003f;
  3201  00FB  0871               	movf	(send_cmd@data),w
  3202  00FC  393F               	andlw	03Fh
  3203  00FD  00F5               	movwf	(??_send_cmd+0)+0
  3204  00FE  0875               	movf	(??_send_cmd+0)+0,w
  3205  00FF  00FA               	movwf	(send_cmd@lower_byte)
  3206                           	line	407
  3207                           	
  3208  0100                     l1245:	
  3209                           ;PR18.c: 407: uart_send(num);
  3210  0100  0878               	movf	(send_cmd@num),w
  3211  0101  120A  158A  27BA   	fcall	_uart_send
              120A  118A         
  3212                           	line	408
  3213                           	
  3214  0106                     l1247:	
  3215                           ;PR18.c: 408: uart_send(higher_byte);
  3216  0106  0879               	movf	(send_cmd@higher_byte),w
  3217  0107  120A  158A  27BA   	fcall	_uart_send
              120A  118A         
  3218                           	line	409
  3219                           	
  3220  010C                     l1249:	
  3221                           ;PR18.c: 409: uart_send(lower_byte);
  3222  010C  087A               	movf	(send_cmd@lower_byte),w
  3223  010D  120A  158A  27BA   	fcall	_uart_send
              120A  118A         
  3224                           	line	410
  3225                           	
  3226  0112                     l1251:	
  3227                           ;PR18.c: 410: uart_send(ramp);
  3228  0112  0873               	movf	(send_cmd@ramp),w
  3229  0113  120A  158A  27BA   	fcall	_uart_send
              120A  118A         
  3230                           	line	411
  3231                           	
  3232  0118                     l166:	
  3233  0118  0008               	return
  3234                           	opt stack 0
  3235                           GLOBAL	__end_of_send_cmd
  3236  0119                     	__end_of_send_cmd:
  3237                           	signat	_send_cmd,12408
  3238                           	global	_send_char
  3239                           
  3240 ;; *************** function _send_char *****************
  3241 ;; Defined at:
  3242 ;;		line 358 in file "PR18.c"
  3243 ;; Parameters:    Size  Location     Type
  3244 ;;  data            1    wreg     unsigned char 
  3245 ;; Auto vars:     Size  Location     Type
  3246 ;;  data            1    8[COMMON] unsigned char 
  3247 ;; Return value:  Size  Location     Type
  3248 ;;		None               void
  3249 ;; Registers used:
  3250 ;;		wreg, status,2, status,0, pclath, cstack
  3251 ;; Tracked objects:
  3252 ;;		On entry : 0/0
  3253 ;;		On exit  : 0/0
  3254 ;;		Unchanged: 0/0
  3255 ;; Data sizes:     COMMON   BANK0   BANK1   BANK3   BANK2
  3256 ;;      Params:         0       0       0       0       0
  3257 ;;      Locals:         1       0       0       0       0
  3258 ;;      Temps:          0       0       0       0       0
  3259 ;;      Totals:         1       0       0       0       0
  3260 ;;Total ram usage:        1 bytes
  3261 ;; Hardware stack levels used:    1
  3262 ;; Hardware stack levels required when called:    1
  3263 ;; This function calls:
  3264 ;;		_delay
  3265 ;; This function is called by:
  3266 ;;		_mode1
  3267 ;;		_mode2
  3268 ;;		_send_string
  3269 ;; This function uses a non-reentrant model
  3270 ;;
  3271                           psect	text236,local,class=CODE,delta=2,merge=1
  3272                           global __ptext236
  3273  0FDA                     __ptext236:
  3274                           psect	text236
  3275                           	file	"PR18.c"
  3276                           	line	358
  3277                           	global	__size_of_send_char
  3278  0026                     	__size_of_send_char	equ	__end_of_send_char-_send_char
  3279                           	
  3280  0FDA                     _send_char:	
  3281                           	opt	stack 5
  3282                           ; Regs used in _send_char: [wreg+status,2+status,0+pclath+cstack]
  3283                           ;send_char@data stored from wreg
  3284  0FDA  00F8               	movwf	(send_char@data)
  3285                           	line	359
  3286                           	
  3287  0FDB                     l1253:	
  3288                           ;PR18.c: 359: RC4=0;
  3289  0FDB  1283               	bcf	status, 5	;RP0=0, select bank0
  3290  0FDC  1303               	bcf	status, 6	;RP1=0, select bank0
  3291  0FDD  1207               	bcf	(60/8),(60)&7	;volatile
  3292                           	line	360
  3293                           ;PR18.c: 360: RC3=1;
  3294  0FDE  1587               	bsf	(59/8),(59)&7	;volatile
  3295                           	line	361
  3296                           	
  3297  0FDF                     l1255:	
  3298                           ;PR18.c: 361: PORTB=data;
  3299  0FDF  0878               	movf	(send_char@data),w
  3300  0FE0  0086               	movwf	(6)	;volatile
  3301                           	line	362
  3302                           	
  3303  0FE1                     l1257:	
  3304                           ;PR18.c: 362: RC5=1;
  3305  0FE1  1687               	bsf	(61/8),(61)&7	;volatile
  3306                           	line	363
  3307                           	
  3308  0FE2                     l1259:	
  3309                           ;PR18.c: 363: delay(10);
  3310  0FE2  3000               	movlw	0
  3311  0FE3  00F3               	movwf	(?_delay+3)
  3312  0FE4  3000               	movlw	0
  3313  0FE5  00F2               	movwf	(?_delay+2)
  3314  0FE6  3000               	movlw	0
  3315  0FE7  00F1               	movwf	(?_delay+1)
  3316  0FE8  300A               	movlw	0Ah
  3317  0FE9  00F0               	movwf	(?_delay)
  3318                           
  3319  0FEA  120A  118A  20B8   	fcall	_delay
              120A  158A         
  3320                           	line	364
  3321                           	
  3322  0FEF                     l1261:	
  3323                           ;PR18.c: 364: RC5=0;
  3324  0FEF  1283               	bcf	status, 5	;RP0=0, select bank0
  3325  0FF0  1303               	bcf	status, 6	;RP1=0, select bank0
  3326  0FF1  1287               	bcf	(61/8),(61)&7	;volatile
  3327                           	line	365
  3328                           	
  3329  0FF2                     l1263:	
  3330                           ;PR18.c: 365: delay(10);
  3331  0FF2  3000               	movlw	0
  3332  0FF3  00F3               	movwf	(?_delay+3)
  3333  0FF4  3000               	movlw	0
  3334  0FF5  00F2               	movwf	(?_delay+2)
  3335  0FF6  3000               	movlw	0
  3336  0FF7  00F1               	movwf	(?_delay+1)
  3337  0FF8  300A               	movlw	0Ah
  3338  0FF9  00F0               	movwf	(?_delay)
  3339                           
  3340  0FFA  120A  118A  20B8   	fcall	_delay
              120A  158A         
  3341                           	line	366
  3342                           	
  3343  0FFF                     l141:	
  3344  0FFF  0008               	return
  3345                           	opt stack 0
  3346                           GLOBAL	__end_of_send_char
  3347  1000                     	__end_of_send_char:
  3348                           	signat	_send_char,4216
  3349                           	global	_delay
  3350                           
  3351 ;; *************** function _delay *****************
  3352 ;; Defined at:
  3353 ;;		line 342 in file "PR18.c"
  3354 ;; Parameters:    Size  Location     Type
  3355 ;;  data            4    0[COMMON] unsigned long 
  3356 ;; Auto vars:     Size  Location     Type
  3357 ;;		None
  3358 ;; Return value:  Size  Location     Type
  3359 ;;		None               void
  3360 ;; Registers used:
  3361 ;;		wreg
  3362 ;; Tracked objects:
  3363 ;;		On entry : 0/0
  3364 ;;		On exit  : 0/0
  3365 ;;		Unchanged: 0/0
  3366 ;; Data sizes:     COMMON   BANK0   BANK1   BANK3   BANK2
  3367 ;;      Params:         4       0       0       0       0
  3368 ;;      Locals:         0       0       0       0       0
  3369 ;;      Temps:          4       0       0       0       0
  3370 ;;      Totals:         8       0       0       0       0
  3371 ;;Total ram usage:        8 bytes
  3372 ;; Hardware stack levels used:    1
  3373 ;; This function calls:
  3374 ;;		Nothing
  3375 ;; This function is called by:
  3376 ;;		_main
  3377 ;;		_mode1
  3378 ;;		_mode2
  3379 ;;		_send_config
  3380 ;;		_send_char
  3381 ;;		_lcd_clr
  3382 ;; This function uses a non-reentrant model
  3383 ;;
  3384                           psect	text237,local,class=CODE,delta=2,merge=1
  3385                           global __ptext237
  3386  00B8                     __ptext237:
  3387                           psect	text237
  3388                           	file	"PR18.c"
  3389                           	line	342
  3390                           	global	__size_of_delay
  3391  0030                     	__size_of_delay	equ	__end_of_delay-_delay
  3392                           	
  3393  00B8                     _delay:	
  3394                           	opt	stack 6
  3395                           ; Regs used in _delay: [wreg]
  3396                           	line	343
  3397                           	
  3398  00B8                     l1183:	
  3399                           ;PR18.c: 343: for( ;data>0;data--);
  3400  00B8  0873               	movf	(delay@data+3),w
  3401  00B9  0472               	iorwf	(delay@data+2),w
  3402  00BA  0471               	iorwf	(delay@data+1),w
  3403  00BB  0470               	iorwf	(delay@data),w
  3404  00BC  1D03               	skipz
  3405  00BD  28BF               	goto	u481
  3406  00BE  28C0               	goto	u480
  3407  00BF                     u481:
  3408  00BF  28C2               	goto	l1187
  3409  00C0                     u480:
  3410  00C0  28E7               	goto	l135
  3411                           	
  3412  00C1                     l1185:	
  3413  00C1  28E7               	goto	l135
  3414                           	
  3415  00C2                     l133:	
  3416                           	
  3417  00C2                     l1187:	
  3418  00C2  3001               	movlw	01h
  3419  00C3  00F4               	movwf	((??_delay+0)+0)
  3420  00C4  3000               	movlw	0
  3421  00C5  00F5               	movwf	((??_delay+0)+0+1)
  3422  00C6  3000               	movlw	0
  3423  00C7  00F6               	movwf	((??_delay+0)+0+2)
  3424  00C8  3000               	movlw	0
  3425  00C9  00F7               	movwf	((??_delay+0)+0+3)
  3426  00CA  0874               	movf	0+(??_delay+0)+0,w
  3427  00CB  02F0               	subwf	(delay@data),f
  3428  00CC  0875               	movf	1+(??_delay+0)+0,w
  3429  00CD  1C03               	skipc
  3430  00CE  0F75               	incfsz	1+(??_delay+0)+0,w
  3431  00CF  28D1               	goto	u495
  3432  00D0  28D2               	goto	u496
  3433  00D1                     u495:
  3434  00D1  02F1               	subwf	(delay@data+1),f
  3435  00D2                     u496:
  3436  00D2  0876               	movf	2+(??_delay+0)+0,w
  3437  00D3  1C03               	skipc
  3438  00D4  0F76               	incfsz	2+(??_delay+0)+0,w
  3439  00D5  28D7               	goto	u497
  3440  00D6  28D8               	goto	u498
  3441  00D7                     u497:
  3442  00D7  02F2               	subwf	(delay@data+2),f
  3443  00D8                     u498:
  3444  00D8  0877               	movf	3+(??_delay+0)+0,w
  3445  00D9  1C03               	skipc
  3446  00DA  0F77               	incfsz	3+(??_delay+0)+0,w
  3447  00DB  28DD               	goto	u499
  3448  00DC  28DE               	goto	u490
  3449  00DD                     u499:
  3450  00DD  02F3               	subwf	(delay@data+3),f
  3451  00DE                     u490:
  3452                           
  3453  00DE  0873               	movf	(delay@data+3),w
  3454  00DF  0472               	iorwf	(delay@data+2),w
  3455  00E0  0471               	iorwf	(delay@data+1),w
  3456  00E1  0470               	iorwf	(delay@data),w
  3457  00E2  1D03               	skipz
  3458  00E3  28E5               	goto	u501
  3459  00E4  28E6               	goto	u500
  3460  00E5                     u501:
  3461  00E5  28C2               	goto	l1187
  3462  00E6                     u500:
  3463  00E6  28E7               	goto	l135
  3464                           	
  3465  00E7                     l134:	
  3466                           	line	344
  3467                           	
  3468  00E7                     l135:	
  3469  00E7  0008               	return
  3470                           	opt stack 0
  3471                           GLOBAL	__end_of_delay
  3472  00E8                     	__end_of_delay:
  3473                           	signat	_delay,4216
  3474                           	global	_uart_send
  3475                           
  3476 ;; *************** function _uart_send *****************
  3477 ;; Defined at:
  3478 ;;		line 393 in file "PR18.c"
  3479 ;; Parameters:    Size  Location     Type
  3480 ;;  data            1    wreg     unsigned char 
  3481 ;; Auto vars:     Size  Location     Type
  3482 ;;  data            1    0[COMMON] unsigned char 
  3483 ;; Return value:  Size  Location     Type
  3484 ;;		None               void
  3485 ;; Registers used:
  3486 ;;		wreg
  3487 ;; Tracked objects:
  3488 ;;		On entry : 0/0
  3489 ;;		On exit  : 0/0
  3490 ;;		Unchanged: 0/0
  3491 ;; Data sizes:     COMMON   BANK0   BANK1   BANK3   BANK2
  3492 ;;      Params:         0       0       0       0       0
  3493 ;;      Locals:         1       0       0       0       0
  3494 ;;      Temps:          0       0       0       0       0
  3495 ;;      Totals:         1       0       0       0       0
  3496 ;;Total ram usage:        1 bytes
  3497 ;; Hardware stack levels used:    1
  3498 ;; This function calls:
  3499 ;;		Nothing
  3500 ;; This function is called by:
  3501 ;;		_send_cmd
  3502 ;; This function uses a non-reentrant model
  3503 ;;
  3504                           psect	text238,local,class=CODE,delta=2,merge=1
  3505                           global __ptext238
  3506  0FBA                     __ptext238:
  3507                           psect	text238
  3508                           	file	"PR18.c"
  3509                           	line	393
  3510                           	global	__size_of_uart_send
  3511  000C                     	__size_of_uart_send	equ	__end_of_uart_send-_uart_send
  3512                           	
  3513  0FBA                     _uart_send:	
  3514                           	opt	stack 5
  3515                           ; Regs used in _uart_send: [wreg]
  3516                           ;uart_send@data stored from wreg
  3517  0FBA  00F0               	movwf	(uart_send@data)
  3518                           	line	394
  3519                           	
  3520  0FBB                     l1189:	
  3521                           ;PR18.c: 394: while(TXIF==0);
  3522  0FBB  2FBC               	goto	l160
  3523                           	
  3524  0FBC                     l161:	
  3525                           	
  3526  0FBC                     l160:	
  3527  0FBC  1283               	bcf	status, 5	;RP0=0, select bank0
  3528  0FBD  1303               	bcf	status, 6	;RP1=0, select bank0
  3529  0FBE  1E0C               	btfss	(100/8),(100)&7	;volatile
  3530  0FBF  2FC1               	goto	u511
  3531  0FC0  2FC2               	goto	u510
  3532  0FC1                     u511:
  3533  0FC1  2FBC               	goto	l160
  3534  0FC2                     u510:
  3535  0FC2  2FC3               	goto	l1191
  3536                           	
  3537  0FC3                     l162:	
  3538                           	line	395
  3539                           	
  3540  0FC3                     l1191:	
  3541                           ;PR18.c: 395: TXREG=data;
  3542  0FC3  0870               	movf	(uart_send@data),w
  3543  0FC4  0099               	movwf	(25)	;volatile
  3544                           	line	396
  3545                           	
  3546  0FC5                     l163:	
  3547  0FC5  0008               	return
  3548                           	opt stack 0
  3549                           GLOBAL	__end_of_uart_send
  3550  0FC6                     	__end_of_uart_send:
  3551                           	signat	_uart_send,4216
  3552                           	global	___awdiv
  3553                           
  3554 ;; *************** function ___awdiv *****************
  3555 ;; Defined at:
  3556 ;;		line 5 in file "C:\Program Files (x86)\Microchip\xc8\v1.00\sources\awdiv.c"
  3557 ;; Parameters:    Size  Location     Type
  3558 ;;  divisor         2    7[COMMON] int 
  3559 ;;  dividend        2    9[COMMON] int 
  3560 ;; Auto vars:     Size  Location     Type
  3561 ;;  quotient        2    2[BANK0 ] int 
  3562 ;;  sign            1    1[BANK0 ] unsigned char 
  3563 ;;  counter         1    0[BANK0 ] unsigned char 
  3564 ;; Return value:  Size  Location     Type
  3565 ;;                  2    7[COMMON] int 
  3566 ;; Registers used:
  3567 ;;		wreg, status,2, status,0
  3568 ;; Tracked objects:
  3569 ;;		On entry : 0/0
  3570 ;;		On exit  : 0/0
  3571 ;;		Unchanged: 0/0
  3572 ;; Data sizes:     COMMON   BANK0   BANK1   BANK3   BANK2
  3573 ;;      Params:         4       0       0       0       0
  3574 ;;      Locals:         0       4       0       0       0
  3575 ;;      Temps:          1       0       0       0       0
  3576 ;;      Totals:         5       4       0       0       0
  3577 ;;Total ram usage:        9 bytes
  3578 ;; Hardware stack levels used:    1
  3579 ;; This function calls:
  3580 ;;		Nothing
  3581 ;; This function is called by:
  3582 ;;		_mode2
  3583 ;; This function uses a non-reentrant model
  3584 ;;
  3585                           psect	text239,local,class=CODE,delta=2,merge=1
  3586                           global __ptext239
  3587  017F                     __ptext239:
  3588                           psect	text239
  3589                           	file	"C:\Program Files (x86)\Microchip\xc8\v1.00\sources\awdiv.c"
  3590                           	line	5
  3591                           	global	__size_of___awdiv
  3592  0076                     	__size_of___awdiv	equ	__end_of___awdiv-___awdiv
  3593                           	
  3594  017F                     ___awdiv:	
  3595                           	opt	stack 6
  3596                           ; Regs used in ___awdiv: [wreg+status,2+status,0]
  3597                           	line	9
  3598                           	
  3599  017F                     l1265:	
  3600  017F  1283               	bcf	status, 5	;RP0=0, select bank0
  3601  0180  1303               	bcf	status, 6	;RP1=0, select bank0
  3602  0181  01A1               	clrf	(___awdiv@sign)
  3603                           	line	10
  3604  0182  1FF8               	btfss	(___awdiv@divisor+1),7
  3605  0183  2985               	goto	u621
  3606  0184  2986               	goto	u620
  3607  0185                     u621:
  3608  0185  298F               	goto	l1269
  3609  0186                     u620:
  3610                           	line	11
  3611                           	
  3612  0186                     l1267:	
  3613  0186  09F7               	comf	(___awdiv@divisor),f
  3614  0187  09F8               	comf	(___awdiv@divisor+1),f
  3615  0188  0AF7               	incf	(___awdiv@divisor),f
  3616  0189  1903               	skipnz
  3617  018A  0AF8               	incf	(___awdiv@divisor+1),f
  3618                           	line	12
  3619  018B  01A1               	clrf	(___awdiv@sign)
  3620  018C  1403               	bsf	status,0
  3621  018D  0DA1               	rlf	(___awdiv@sign),f
  3622  018E  298F               	goto	l1269
  3623                           	line	13
  3624                           	
  3625  018F                     l395:	
  3626                           	line	14
  3627                           	
  3628  018F                     l1269:	
  3629  018F  1FFA               	btfss	(___awdiv@dividend+1),7
  3630  0190  2992               	goto	u631
  3631  0191  2993               	goto	u630
  3632  0192                     u631:
  3633  0192  299D               	goto	l1275
  3634  0193                     u630:
  3635                           	line	15
  3636                           	
  3637  0193                     l1271:	
  3638  0193  09F9               	comf	(___awdiv@dividend),f
  3639  0194  09FA               	comf	(___awdiv@dividend+1),f
  3640  0195  0AF9               	incf	(___awdiv@dividend),f
  3641  0196  1903               	skipnz
  3642  0197  0AFA               	incf	(___awdiv@dividend+1),f
  3643                           	line	16
  3644                           	
  3645  0198                     l1273:	
  3646  0198  3001               	movlw	(01h)
  3647  0199  00FB               	movwf	(??___awdiv+0)+0
  3648  019A  087B               	movf	(??___awdiv+0)+0,w
  3649  019B  06A1               	xorwf	(___awdiv@sign),f
  3650  019C  299D               	goto	l1275
  3651                           	line	17
  3652                           	
  3653  019D                     l396:	
  3654                           	line	18
  3655                           	
  3656  019D                     l1275:	
  3657  019D  01A2               	clrf	(___awdiv@quotient)
  3658  019E  01A3               	clrf	(___awdiv@quotient+1)
  3659                           	line	19
  3660                           	
  3661  019F                     l1277:	
  3662  019F  0878               	movf	(___awdiv@divisor+1),w
  3663  01A0  0477               	iorwf	(___awdiv@divisor),w
  3664  01A1  1903               	skipnz
  3665  01A2  29A4               	goto	u641
  3666  01A3  29A5               	goto	u640
  3667  01A4                     u641:
  3668  01A4  29E3               	goto	l1297
  3669  01A5                     u640:
  3670                           	line	20
  3671                           	
  3672  01A5                     l1279:	
  3673  01A5  01A0               	clrf	(___awdiv@counter)
  3674  01A6  1403               	bsf	status,0
  3675  01A7  0DA0               	rlf	(___awdiv@counter),f
  3676                           	line	21
  3677  01A8  29B5               	goto	l1285
  3678                           	
  3679  01A9                     l399:	
  3680                           	line	22
  3681                           	
  3682  01A9                     l1281:	
  3683  01A9  3001               	movlw	01h
  3684                           	
  3685  01AA                     u655:
  3686  01AA  1003               	clrc
  3687  01AB  0DF7               	rlf	(___awdiv@divisor),f
  3688  01AC  0DF8               	rlf	(___awdiv@divisor+1),f
  3689  01AD  3EFF               	addlw	-1
  3690  01AE  1D03               	skipz
  3691  01AF  29AA               	goto	u655
  3692                           	line	23
  3693                           	
  3694  01B0                     l1283:	
  3695  01B0  3001               	movlw	(01h)
  3696  01B1  00FB               	movwf	(??___awdiv+0)+0
  3697  01B2  087B               	movf	(??___awdiv+0)+0,w
  3698  01B3  07A0               	addwf	(___awdiv@counter),f
  3699  01B4  29B5               	goto	l1285
  3700                           	line	24
  3701                           	
  3702  01B5                     l398:	
  3703                           	line	21
  3704                           	
  3705  01B5                     l1285:	
  3706  01B5  1FF8               	btfss	(___awdiv@divisor+1),(15)&7
  3707  01B6  29B8               	goto	u661
  3708  01B7  29B9               	goto	u660
  3709  01B8                     u661:
  3710  01B8  29A9               	goto	l1281
  3711  01B9                     u660:
  3712  01B9  29BB               	goto	l1287
  3713                           	
  3714  01BA                     l400:	
  3715  01BA  29BB               	goto	l1287
  3716                           	line	25
  3717                           	
  3718  01BB                     l401:	
  3719                           	line	26
  3720                           	
  3721  01BB                     l1287:	
  3722  01BB  3001               	movlw	01h
  3723                           	
  3724  01BC                     u675:
  3725  01BC  1003               	clrc
  3726  01BD  0DA2               	rlf	(___awdiv@quotient),f
  3727  01BE  0DA3               	rlf	(___awdiv@quotient+1),f
  3728  01BF  3EFF               	addlw	-1
  3729  01C0  1D03               	skipz
  3730  01C1  29BC               	goto	u675
  3731                           	line	27
  3732  01C2  0878               	movf	(___awdiv@divisor+1),w
  3733  01C3  027A               	subwf	(___awdiv@dividend+1),w
  3734  01C4  1D03               	skipz
  3735  01C5  29C8               	goto	u685
  3736  01C6  0877               	movf	(___awdiv@divisor),w
  3737  01C7  0279               	subwf	(___awdiv@dividend),w
  3738  01C8                     u685:
  3739  01C8  1C03               	skipc
  3740  01C9  29CB               	goto	u681
  3741  01CA  29CC               	goto	u680
  3742  01CB                     u681:
  3743  01CB  29D4               	goto	l1293
  3744  01CC                     u680:
  3745                           	line	28
  3746                           	
  3747  01CC                     l1289:	
  3748  01CC  0877               	movf	(___awdiv@divisor),w
  3749  01CD  02F9               	subwf	(___awdiv@dividend),f
  3750  01CE  0878               	movf	(___awdiv@divisor+1),w
  3751  01CF  1C03               	skipc
  3752  01D0  03FA               	decf	(___awdiv@dividend+1),f
  3753  01D1  02FA               	subwf	(___awdiv@dividend+1),f
  3754                           	line	29
  3755                           	
  3756  01D2                     l1291:	
  3757  01D2  1422               	bsf	(___awdiv@quotient)+(0/8),(0)&7
  3758  01D3  29D4               	goto	l1293
  3759                           	line	30
  3760                           	
  3761  01D4                     l402:	
  3762                           	line	31
  3763                           	
  3764  01D4                     l1293:	
  3765  01D4  3001               	movlw	01h
  3766                           	
  3767  01D5                     u695:
  3768  01D5  1003               	clrc
  3769  01D6  0CF8               	rrf	(___awdiv@divisor+1),f
  3770  01D7  0CF7               	rrf	(___awdiv@divisor),f
  3771  01D8  3EFF               	addlw	-1
  3772  01D9  1D03               	skipz
  3773  01DA  29D5               	goto	u695
  3774                           	line	32
  3775                           	
  3776  01DB                     l1295:	
  3777  01DB  3001               	movlw	low(01h)
  3778  01DC  02A0               	subwf	(___awdiv@counter),f
  3779  01DD  1D03               	btfss	status,2
  3780  01DE  29E0               	goto	u701
  3781  01DF  29E1               	goto	u700
  3782  01E0                     u701:
  3783  01E0  29BB               	goto	l1287
  3784  01E1                     u700:
  3785  01E1  29E3               	goto	l1297
  3786                           	
  3787  01E2                     l403:	
  3788  01E2  29E3               	goto	l1297
  3789                           	line	33
  3790                           	
  3791  01E3                     l397:	
  3792                           	line	34
  3793                           	
  3794  01E3                     l1297:	
  3795  01E3  0821               	movf	(___awdiv@sign),w
  3796  01E4  1D03               	skipz
  3797  01E5  29E7               	goto	u710
  3798  01E6  29ED               	goto	l1301
  3799  01E7                     u710:
  3800                           	line	35
  3801                           	
  3802  01E7                     l1299:	
  3803  01E7  09A2               	comf	(___awdiv@quotient),f
  3804  01E8  09A3               	comf	(___awdiv@quotient+1),f
  3805  01E9  0AA2               	incf	(___awdiv@quotient),f
  3806  01EA  1903               	skipnz
  3807  01EB  0AA3               	incf	(___awdiv@quotient+1),f
  3808  01EC  29ED               	goto	l1301
  3809                           	
  3810  01ED                     l404:	
  3811                           	line	36
  3812                           	
  3813  01ED                     l1301:	
  3814  01ED  0823               	movf	(___awdiv@quotient+1),w
  3815  01EE  01F8               	clrf	(?___awdiv+1)
  3816  01EF  07F8               	addwf	(?___awdiv+1)
  3817  01F0  0822               	movf	(___awdiv@quotient),w
  3818  01F1  01F7               	clrf	(?___awdiv)
  3819  01F2  07F7               	addwf	(?___awdiv)
  3820                           
  3821  01F3  29F4               	goto	l405
  3822                           	
  3823  01F4                     l1303:	
  3824                           	line	37
  3825                           	
  3826  01F4                     l405:	
  3827  01F4  0008               	return
  3828                           	opt stack 0
  3829                           GLOBAL	__end_of___awdiv
  3830  01F5                     	__end_of___awdiv:
  3831                           	signat	___awdiv,8314
  3832                           	global	___awmod
  3833                           
  3834 ;; *************** function ___awmod *****************
  3835 ;; Defined at:
  3836 ;;		line 5 in file "C:\Program Files (x86)\Microchip\xc8\v1.00\sources\awmod.c"
  3837 ;; Parameters:    Size  Location     Type
  3838 ;;  divisor         2    0[COMMON] int 
  3839 ;;  dividend        2    2[COMMON] int 
  3840 ;; Auto vars:     Size  Location     Type
  3841 ;;  sign            1    6[COMMON] unsigned char 
  3842 ;;  counter         1    5[COMMON] unsigned char 
  3843 ;; Return value:  Size  Location     Type
  3844 ;;                  2    0[COMMON] int 
  3845 ;; Registers used:
  3846 ;;		wreg, status,2, status,0
  3847 ;; Tracked objects:
  3848 ;;		On entry : 0/0
  3849 ;;		On exit  : 0/0
  3850 ;;		Unchanged: 0/0
  3851 ;; Data sizes:     COMMON   BANK0   BANK1   BANK3   BANK2
  3852 ;;      Params:         4       0       0       0       0
  3853 ;;      Locals:         2       0       0       0       0
  3854 ;;      Temps:          1       0       0       0       0
  3855 ;;      Totals:         7       0       0       0       0
  3856 ;;Total ram usage:        7 bytes
  3857 ;; Hardware stack levels used:    1
  3858 ;; This function calls:
  3859 ;;		Nothing
  3860 ;; This function is called by:
  3861 ;;		_mode2
  3862 ;; This function uses a non-reentrant model
  3863 ;;
  3864                           psect	text240,local,class=CODE,delta=2,merge=1
  3865                           global __ptext240
  3866  0119                     __ptext240:
  3867                           psect	text240
  3868                           	file	"C:\Program Files (x86)\Microchip\xc8\v1.00\sources\awmod.c"
  3869                           	line	5
  3870                           	global	__size_of___awmod
  3871  0066                     	__size_of___awmod	equ	__end_of___awmod-___awmod
  3872                           	
  3873  0119                     ___awmod:	
  3874                           	opt	stack 6
  3875                           ; Regs used in ___awmod: [wreg+status,2+status,0]
  3876                           	line	8
  3877                           	
  3878  0119                     l1193:	
  3879  0119  01F6               	clrf	(___awmod@sign)
  3880                           	line	9
  3881  011A  1FF3               	btfss	(___awmod@dividend+1),7
  3882  011B  291D               	goto	u521
  3883  011C  291E               	goto	u520
  3884  011D                     u521:
  3885  011D  2927               	goto	l1197
  3886  011E                     u520:
  3887                           	line	10
  3888                           	
  3889  011E                     l1195:	
  3890  011E  09F2               	comf	(___awmod@dividend),f
  3891  011F  09F3               	comf	(___awmod@dividend+1),f
  3892  0120  0AF2               	incf	(___awmod@dividend),f
  3893  0121  1903               	skipnz
  3894  0122  0AF3               	incf	(___awmod@dividend+1),f
  3895                           	line	11
  3896  0123  01F6               	clrf	(___awmod@sign)
  3897  0124  1403               	bsf	status,0
  3898  0125  0DF6               	rlf	(___awmod@sign),f
  3899  0126  2927               	goto	l1197
  3900                           	line	12
  3901                           	
  3902  0127                     l463:	
  3903                           	line	13
  3904                           	
  3905  0127                     l1197:	
  3906  0127  1FF1               	btfss	(___awmod@divisor+1),7
  3907  0128  292A               	goto	u531
  3908  0129  292B               	goto	u530
  3909  012A                     u531:
  3910  012A  2931               	goto	l1201
  3911  012B                     u530:
  3912                           	line	14
  3913                           	
  3914  012B                     l1199:	
  3915  012B  09F0               	comf	(___awmod@divisor),f
  3916  012C  09F1               	comf	(___awmod@divisor+1),f
  3917  012D  0AF0               	incf	(___awmod@divisor),f
  3918  012E  1903               	skipnz
  3919  012F  0AF1               	incf	(___awmod@divisor+1),f
  3920  0130  2931               	goto	l1201
  3921                           	
  3922  0131                     l464:	
  3923                           	line	15
  3924                           	
  3925  0131                     l1201:	
  3926  0131  0871               	movf	(___awmod@divisor+1),w
  3927  0132  0470               	iorwf	(___awmod@divisor),w
  3928  0133  1903               	skipnz
  3929  0134  2936               	goto	u541
  3930  0135  2937               	goto	u540
  3931  0136                     u541:
  3932  0136  296D               	goto	l1219
  3933  0137                     u540:
  3934                           	line	16
  3935                           	
  3936  0137                     l1203:	
  3937  0137  01F5               	clrf	(___awmod@counter)
  3938  0138  1403               	bsf	status,0
  3939  0139  0DF5               	rlf	(___awmod@counter),f
  3940                           	line	17
  3941  013A  2947               	goto	l1209
  3942                           	
  3943  013B                     l467:	
  3944                           	line	18
  3945                           	
  3946  013B                     l1205:	
  3947  013B  3001               	movlw	01h
  3948                           	
  3949  013C                     u555:
  3950  013C  1003               	clrc
  3951  013D  0DF0               	rlf	(___awmod@divisor),f
  3952  013E  0DF1               	rlf	(___awmod@divisor+1),f
  3953  013F  3EFF               	addlw	-1
  3954  0140  1D03               	skipz
  3955  0141  293C               	goto	u555
  3956                           	line	19
  3957                           	
  3958  0142                     l1207:	
  3959  0142  3001               	movlw	(01h)
  3960  0143  00F4               	movwf	(??___awmod+0)+0
  3961  0144  0874               	movf	(??___awmod+0)+0,w
  3962  0145  07F5               	addwf	(___awmod@counter),f
  3963  0146  2947               	goto	l1209
  3964                           	line	20
  3965                           	
  3966  0147                     l466:	
  3967                           	line	17
  3968                           	
  3969  0147                     l1209:	
  3970  0147  1FF1               	btfss	(___awmod@divisor+1),(15)&7
  3971  0148  294A               	goto	u561
  3972  0149  294B               	goto	u560
  3973  014A                     u561:
  3974  014A  293B               	goto	l1205
  3975  014B                     u560:
  3976  014B  294D               	goto	l1211
  3977                           	
  3978  014C                     l468:	
  3979  014C  294D               	goto	l1211
  3980                           	line	21
  3981                           	
  3982  014D                     l469:	
  3983                           	line	22
  3984                           	
  3985  014D                     l1211:	
  3986  014D  0871               	movf	(___awmod@divisor+1),w
  3987  014E  0273               	subwf	(___awmod@dividend+1),w
  3988  014F  1D03               	skipz
  3989  0150  2953               	goto	u575
  3990  0151  0870               	movf	(___awmod@divisor),w
  3991  0152  0272               	subwf	(___awmod@dividend),w
  3992  0153                     u575:
  3993  0153  1C03               	skipc
  3994  0154  2956               	goto	u571
  3995  0155  2957               	goto	u570
  3996  0156                     u571:
  3997  0156  295E               	goto	l1215
  3998  0157                     u570:
  3999                           	line	23
  4000                           	
  4001  0157                     l1213:	
  4002  0157  0870               	movf	(___awmod@divisor),w
  4003  0158  02F2               	subwf	(___awmod@dividend),f
  4004  0159  0871               	movf	(___awmod@divisor+1),w
  4005  015A  1C03               	skipc
  4006  015B  03F3               	decf	(___awmod@dividend+1),f
  4007  015C  02F3               	subwf	(___awmod@dividend+1),f
  4008  015D  295E               	goto	l1215
  4009                           	
  4010  015E                     l470:	
  4011                           	line	24
  4012                           	
  4013  015E                     l1215:	
  4014  015E  3001               	movlw	01h
  4015                           	
  4016  015F                     u585:
  4017  015F  1003               	clrc
  4018  0160  0CF1               	rrf	(___awmod@divisor+1),f
  4019  0161  0CF0               	rrf	(___awmod@divisor),f
  4020  0162  3EFF               	addlw	-1
  4021  0163  1D03               	skipz
  4022  0164  295F               	goto	u585
  4023                           	line	25
  4024                           	
  4025  0165                     l1217:	
  4026  0165  3001               	movlw	low(01h)
  4027  0166  02F5               	subwf	(___awmod@counter),f
  4028  0167  1D03               	btfss	status,2
  4029  0168  296A               	goto	u591
  4030  0169  296B               	goto	u590
  4031  016A                     u591:
  4032  016A  294D               	goto	l1211
  4033  016B                     u590:
  4034  016B  296D               	goto	l1219
  4035                           	
  4036  016C                     l471:	
  4037  016C  296D               	goto	l1219
  4038                           	line	26
  4039                           	
  4040  016D                     l465:	
  4041                           	line	27
  4042                           	
  4043  016D                     l1219:	
  4044  016D  0876               	movf	(___awmod@sign),w
  4045  016E  1D03               	skipz
  4046  016F  2971               	goto	u600
  4047  0170  2977               	goto	l1223
  4048  0171                     u600:
  4049                           	line	28
  4050                           	
  4051  0171                     l1221:	
  4052  0171  09F2               	comf	(___awmod@dividend),f
  4053  0172  09F3               	comf	(___awmod@dividend+1),f
  4054  0173  0AF2               	incf	(___awmod@dividend),f
  4055  0174  1903               	skipnz
  4056  0175  0AF3               	incf	(___awmod@dividend+1),f
  4057  0176  2977               	goto	l1223
  4058                           	
  4059  0177                     l472:	
  4060                           	line	29
  4061                           	
  4062  0177                     l1223:	
  4063  0177  0873               	movf	(___awmod@dividend+1),w
  4064  0178  01F1               	clrf	(?___awmod+1)
  4065  0179  07F1               	addwf	(?___awmod+1)
  4066  017A  0872               	movf	(___awmod@dividend),w
  4067  017B  01F0               	clrf	(?___awmod)
  4068  017C  07F0               	addwf	(?___awmod)
  4069                           
  4070  017D  297E               	goto	l473
  4071                           	
  4072  017E                     l1225:	
  4073                           	line	30
  4074                           	
  4075  017E                     l473:	
  4076  017E  0008               	return
  4077                           	opt stack 0
  4078                           GLOBAL	__end_of___awmod
  4079  017F                     	__end_of___awmod:
  4080                           	signat	___awmod,8314
  4081                           psect	text241,local,class=CODE,delta=2,merge=1
  4082                           global __ptext241
  4083  0000                     __ptext241:
  4084                           	global	btemp
  4085  007E                     	btemp set 07Eh
  4086                           
  4087                           	DABS	1,126,2	;btemp
  4088                           	global	wtemp0
  4089  007E                     	wtemp0 set btemp


Data Sizes:
    Strings     68
    Constant    0
    Data        0
    BSS         1
    Persistent  0
    Stack       0

Auto Spaces:
    Space          Size  Autos    Used
    COMMON           14     14      14
    BANK0            80     10      11
    BANK1            80      0       0
    BANK3            96      0       0
    BANK2            96      0       0

Pointer List with Targets:

    ?___awmod	int  size(1) Largest target is 0

    ?___awdiv	int  size(1) Largest target is 0

    send_string@s	PTR const unsigned char  size(1) Largest target is 15
		 -> STR_9(CODE[8]), STR_8(CODE[3]), STR_7(CODE[9]), STR_6(CODE[3]), 
		 -> STR_5(CODE[15]), STR_4(CODE[15]), STR_3(CODE[3]), STR_2(CODE[5]), 
		 -> STR_1(CODE[13]), 


Critical Paths under _main in COMMON

    _main->_mode2
    _mode1->_lcd_goto
    _mode1->_send_string
    _mode1->_send_cmd
    _mode2->___awdiv
    _lcd_clr->_send_config
    _lcd_goto->_send_config
    _send_config->_delay
    _send_string->_send_char
    _send_cmd->_uart_send
    _send_char->_delay
    ___awdiv->___awmod

Critical Paths under _main in BANK0

    _main->_mode2
    _mode2->___awdiv

Critical Paths under _main in BANK1

    None.

Critical Paths under _main in BANK3

    None.

Critical Paths under _main in BANK2

    None.

Call Graph Tables:

 ---------------------------------------------------------------------------------
 (Depth) Function   	        Calls       Base Space   Used Autos Params    Refs
 ---------------------------------------------------------------------------------
 (0) _main                                                 1     1      0    2882
                                              9 BANK0      1     1      0
                        _send_config
                            _lcd_clr
                           _lcd_goto
                        _send_string
                           _send_cmd
                              _delay
                              _mode1
                              _mode2
 ---------------------------------------------------------------------------------
 (1) _mode1                                                0     0      0     560
                           _lcd_goto
                          _send_char
                        _send_string
                              _delay
                           _send_cmd
 ---------------------------------------------------------------------------------
 (1) _mode2                                                7     7      0    1650
                                             12 COMMON     2     2      0
                                              4 BANK0      5     5      0
                            _lcd_clr
                           _lcd_goto
                        _send_string
                          _send_char
                            ___awdiv
                            ___awmod
                              _delay
                           _send_cmd
 ---------------------------------------------------------------------------------
 (2) _lcd_clr                                              0     0      0     112
                        _send_config
                              _delay
 ---------------------------------------------------------------------------------
 (2) _lcd_goto                                             2     2      0     156
                                              9 COMMON     2     2      0
                        _send_config
 ---------------------------------------------------------------------------------
 (3) _send_config                                          1     1      0      67
                                              8 COMMON     1     1      0
                              _delay
 ---------------------------------------------------------------------------------
 (2) _send_string                                          2     2      0     134
                                              9 COMMON     2     2      0
                          _send_char
 ---------------------------------------------------------------------------------
 (2) _send_cmd                                            10     6      4     158
                                              1 COMMON    10     6      4
                          _uart_send
 ---------------------------------------------------------------------------------
 (2) _send_char                                            1     1      0      67
                                              8 COMMON     1     1      0
                              _delay
 ---------------------------------------------------------------------------------
 (2) _delay                                                8     4      4      45
                                              0 COMMON     8     4      4
 ---------------------------------------------------------------------------------
 (3) _uart_send                                            1     1      0      22
                                              0 COMMON     1     1      0
 ---------------------------------------------------------------------------------
 (2) ___awdiv                                              9     5      4     300
                                              7 COMMON     5     1      4
                                              0 BANK0      4     4      0
                            ___awmod (ARG)
 ---------------------------------------------------------------------------------
 (2) ___awmod                                              7     3      4     296
                                              0 COMMON     7     3      4
 ---------------------------------------------------------------------------------
 Estimated maximum stack depth 3
 ---------------------------------------------------------------------------------

 Call Graph Graphs:

 _main (ROOT)
   _send_config
     _delay
   _lcd_clr
     _send_config
       _delay
     _delay
   _lcd_goto
     _send_config
       _delay
   _send_string
     _send_char
       _delay
   _send_cmd
     _uart_send
   _delay
   _mode1
     _lcd_goto
       _send_config
         _delay
     _send_char
       _delay
     _send_string
       _send_char
         _delay
     _delay
     _send_cmd
       _uart_send
   _mode2
     _lcd_clr
       _send_config
         _delay
       _delay
     _lcd_goto
       _send_config
         _delay
     _send_string
       _send_char
         _delay
     _send_char
       _delay
     ___awdiv
       ___awmod (ARG)
     ___awmod
     _delay
     _send_cmd
       _uart_send

 Address spaces:
Name               Size   Autos  Total    Cost      Usage
BITCOMMON            E      0       0       0        0.0%
EEDATA             100      0       0       0        0.0%
NULL                 0      0       0       0        0.0%
CODE                 0      0       0       0        0.0%
COMMON               E      E       E       1      100.0%
BITSFR0              0      0       0       1        0.0%
SFR0                 0      0       0       1        0.0%
BITSFR1              0      0       0       2        0.0%
SFR1                 0      0       0       2        0.0%
STACK                0      0       4       2        0.0%
ABS                  0      0      19       3        0.0%
BITBANK0            50      0       0       4        0.0%
BITSFR3              0      0       0       4        0.0%
SFR3                 0      0       0       4        0.0%
BANK0               50      A       B       5       13.8%
BITSFR2              0      0       0       5        0.0%
SFR2                 0      0       0       5        0.0%
BITBANK1            50      0       0       6        0.0%
BANK1               50      0       0       7        0.0%
BITBANK3            60      0       0       8        0.0%
BANK3               60      0       0       9        0.0%
BITBANK2            60      0       0      10        0.0%
BANK2               60      0       0      11        0.0%
DATA                 0      0      1D      12        0.0%


HI-TECH Software PICC Macro Assembler V1.00 build 12136 
Symbol Table                                                                                   Wed Jun 27 12:57:00 2012

                   pc 0002                    l71 02BC                    l72 031B                    l80 02F4  
                  l81 030D                    l73 02CE                    l90 034B                    l82 02FB  
                  l74 02DC                    l91 035D                    l83 0322                    l75 02DB  
                  l92 035E                    l84 0330                    l76 02ED                    l93 035E  
                  l85 0330                    l77 02EC                    l86 0337                    l78 02EB  
                  l87 0352                    l79 0303                    l96 060D                    l88 0345  
                  l97 07FE                    l89 035C                    l98 07FF                    l99 07FF  
        ___awdiv@sign 0021                    fsr 0004                   l110 03C8                   l102 0367  
                 l103 0408                   l111 03FA                   l120 0479                   l112 040F  
                 l104 038D                   l121 0479                   l113 041D                   l105 039B  
                 l130 055C                   l122 0478                   l114 041D                   l106 039A  
                 l123 0523                   l115 0424                   l107 03AC                   l124 0538  
                 l116 0531                   l108 03AB                   l133 00C2                   l141 0FFF  
                 l125 0546                   l117 0443                   l109 03AA                   l134 00E7  
                 l126 0546                   l118 045E                   l135 00E7                   l127 054D  
                 l119 045D                   l400 01BA                   l160 0FBC                   l152 007F  
                 l144 005E                   l128 055B                   l401 01BB                   l161 0FBC  
                 l153 006E                   l145 006B                   l129 055C                   l402 01D4  
                 l162 0FC3                   l138 00B7                   l146 006B                   l403 01E2  
                 l163 0FC5                   l155 0090                   l404 01ED                   l156 0091  
                 l405 01F4                   l157 0091                   l149 0FD9                   l166 0118  
                 l470 015E                   l471 016C                   l463 0127                   l472 0177  
                 l464 0131                   l473 017E                   l465 016D                   l466 0147  
                 l467 013B                   l395 018F                   l468 014C                   l396 019D  
                 l469 014D                   l397 01E3                   l398 01B5                   l399 01A9  
                 _RA0 0028                   _RA1 0029                   _RA2 002A                   _RC3 003B  
                 _RC4 003C                   _RC5 003D                   u500 00E6                   u501 00E5  
                 u510 0FC2                   _PR2 0092                   u511 0FC1                   u600 0171  
                 u520 011E                   u521 011D                   u530 012B                   u531 012A  
                 u540 0137                   u700 01E1                   u620 0186                   u541 0136  
                 u701 01E0                   u621 0185                   u710 01E7                   u630 0193  
                 u631 0192                   u615 00F0                   u560 014B                   u640 01A5  
                 u480 00C0                   u720 0056                   u800 040E                   u561 014A  
                 u641 01A4                   u481 00BF                   u721 0055                   u801 040D  
                 u570 0157                   u490 00DE                   u730 0083                   u810 0423  
                 u571 0156                   u555 013C                   u811 0422                   u660 01B9  
                 u740 008F                   u820 0447                   u900 02D8                   u661 01B8  
                 u741 008E                   u821 0446                   u901 02D7                   u590 016B  
                 u830 0454                   u750 0391                   u910 02E0                   u591 016A  
                 u575 0153                   u655 01AA                   u495 00D1                   u831 0453  
                 u751 0390                   u911 02DF                   u680 01CC                   u496 00D2  
                 u840 0462                   u760 0397                   u920 02E6                   u585 015F  
                 u681 01CB                   u497 00D7                   u841 0461                   u761 0396  
                 u921 02E5                   u498 00D8                   u850 046F                   u770 039F  
                 u930 0321                   u675 01BC                   u499 00DD                   u851 046E  
                 u835 0450                   u771 039E                   u931 0320                   u860 0485  
                 u780 03A5                   u940 0336                   u685 01C8                   u861 0484  
                 u781 03A4                   u941 0335                   u870 0537                   u790 03BA  
                 u695 01D5                   u871 0536                   u855 046B                   u791 03B9  
                 u880 054C                   u881 054B                   u865 0481                   u890 02D2  
                 u891 02D1                   fsr0 0004          ___awmod@sign 0076       send_config@data 0078  
                l1201 0131                  l1211 014D                  l1203 0137                  l1221 0171  
                l1213 0157                  l1205 013B                  l1301 01ED                  l1223 0177  
                l1215 015E                  l1207 0142                  l1303 01F4                  l1231 0099  
                l1311 005E                  l1225 017E                  l1217 0165                  l1209 0147  
                l1241 00EB                  l1321 007F                  l1233 009A                  l1313 0063  
                l1305 0FC6                  l1401 0766                  l1219 016D                  l1251 0112  
                l1243 00FB                  l1323 0083                  l1315 006D                  l1235 00A7  
                l1227 0093                  l1307 0050                  l1411 07AB                  l1403 0774  
                l1331 0582                  l1261 0FEF                  l1253 0FDB                  l1245 0100  
                l1317 006E                  l1237 00AA                  l1229 0097                  l1309 0056  
                l1421 07F0                  l1413 07B8                  l1405 0782                  l1341 05C7  
                l1333 0590                  l1325 055D                  l1501 01FE                  l1271 0193  
                l1191 0FC3                  l1183 00B8                  l1263 0FF2                  l1255 0FDF  
                l1247 0106                  l1239 00E9                  l1319 007A                  l1431 0374  
                l1423 0361                  l1415 07C6                  l1407 078F                  l1351 060D  
                l1343 05D5                  l1335 059E                  l1327 056F                  l1511 0208  
                l1503 01FF                  l1193 0119                  l1281 01A9                  l1273 0198  
                l1265 017F                  l1185 00C1                  l1257 0FE1                  l1249 010C  
                l1441 0397                  l1433 037A                  l1425 0367                  l1417 07D4  
                l1409 079D                  l1361 0652                  l1353 061B                  l1345 05E3  
                l1337 05AC                  l1329 0575                  l1521 0226                  l1513 020E  
                l1505 0200                  l1195 011E                  l1291 01D2                  l1283 01B0  
                l1275 019D                  l1267 0186                  l1187 00C2                  l1259 0FE2  
                l1451 03BA                  l1443 039F                  l1435 0380                  l1427 036D  
                l1419 07E2                  l1371 0697                  l1363 0660                  l1355 0629  
                l1347 05F1                  l1339 05BA                  l1531 0236                  l1523 022A  
                l1515 0214                  l1507 0203                  l1197 0127                  l1293 01D4  
                l1285 01B5                  l1277 019F                  l1269 018F                  l1189 0FBB  
                l1461 043C                  l1453 03C8                  l1445 03A5                  l1437 0386  
                l1429 036F                  l1381 06DC                  l1373 06A5                  l1365 066E  
                l1357 0636                  l1349 05FF                  l1541 024F                  l1533 0238  
                l1525 022C                  l1517 021A                  l1509 0204                  l1199 012B  
                l1295 01DB                  l1287 01BB                  l1279 01A5                  l1471 0485  
                l1463 0447                  l1447 03AC                  l1439 0391                  l1455 0408  
                l1391 0721                  l1383 06EA                  l1375 06B3                  l1367 067C  
                l1359 0644                  l1551 028D                  l1543 0255                  l1535 023D  
                l1527 0230                  l1519 0220                  l1289 01CC                  l1297 01E3  
                l1481 04E3                  l1473 0496                  l1465 0454                  l1457 040F  
                l1449 03B2                  l1393 072E                  l1385 06F8                  l1377 06C0  
                l1369 068A                  l1561 02C1                  l1553 029B                  l1545 0263  
                l1537 0243                  l1529 0234                  l1299 01E7                  l1491 054D  
                l1483 050A                  l1475 049E                  l1467 0462                  l1459 0424  
                l1395 073C                  l1387 0705                  l1379 06CE                  l1571 02E6  
                l1563 02C7                  l1555 02A9                  l1547 0271                  l1539 0249  
                l1477 04A4                  l1485 0523                  l1469 046F                  l1397 074A  
                l1389 0713                  l1581 0303                  l1573 02ED                  l1565 02D2  
                l1557 02B6                  l1549 027F                  l1493 01F5                  l1479 04BC  
                l1487 0531                  l1399 0758                  l1591 0345                  l1583 030D  
                l1575 02F4                  l1567 02D8                  l1559 02BC                  l1495 01F8  
                l1489 0538                  l1593 034B                  l1577 02FB                  l1569 02E0  
                l1585 031B                  l1497 01FA                  l1595 0351                  l1587 0322  
                l1579 0302                  l1499 01FC                  l1597 0352                  l1589 0337  
                STR_1 0027                  STR_2 0045                  STR_3 004A                  STR_4 0018  
                STR_5 0009                  STR_6 0015                  STR_7 0034                  STR_8 004A  
                STR_9 003D                  _BRGH 04C2                  _CREN 00C4                  _SPEN 00C7  
                _TXEN 04C5                  _TXIF 0064                  _main 01F5                  _mode 002A  
                btemp 007E          lcd_goto@data 007A                  start 0000                 ?_main 0070  
     __end_of___awdiv 01F5       __end_of___awmod 017F       ___awdiv@divisor 0077                 _T2CON 0012  
     ___awdiv@counter 0020                 _SPBRG 0099                 _PORTB 0006                 _TRISA 0085  
               _TRISB 0086                 _TRISC 0087                 _TXREG 0019       __end_of_lcd_clr 0FDA  
               _delay 00B8                 _mode1 055D                 _mode2 0361                 pclath 000A  
               status 0003                 wtemp0 007E       mode2@value_temp 0026          __end_of_main 0361  
              ??_main 0029                ?_delay 0070          ?_send_config 0070                _ADCON1 009F  
              ?_mode1 0070                ?_mode2 0070                _CCPR1L 0015                _CCPR2L 001B  
    ___awdiv@dividend 0079          ?_send_string 0070      __end_of_lcd_goto 006C             ??___awdiv 007B  
           ??___awmod 0074      ___awdiv@quotient 0022       ___awmod@divisor 0070       ___awmod@counter 0075  
           ??_lcd_clr 0079      __end_of_send_cmd 0119          mode2@channel 0028        __pcstackCOMMON 0070  
       __end_of_delay 00E8         __end_of_mode1 0800         __end_of_mode2 055D               ??_delay 0074  
             ??_mode1 007B               ??_mode2 007C            __pbssBANK0 002A            __pmaintext 01F5  
  __size_of_send_char 0026               _CCP1CON 0017               _CCP2CON 001D    __size_of_uart_send 000C  
  send_cmd@lower_byte 007A           send_cmd@num 0078             ?_lcd_goto 0070  __size_of_send_config 0026  
__size_of_send_string 0026             ?_send_cmd 0071               ___awdiv 017F               ___awmod 0119  
             _lcd_clr 0FC6      ___awmod@dividend 0072            ??_lcd_goto 0079  end_of_initialization 0FB6  
   __end_of_send_char 1000     __end_of_uart_send 0FC6            ??_send_cmd 0075         send_char@data 0078  
 send_cmd@higher_byte 0079   start_initialization 0FB5            mode2@value 0024         __pcstackBANK0 0020  
   __size_of_lcd_goto 001D     __size_of_send_cmd 0031              ?___awdiv 0077             __ptext230 0361  
           __ptext231 0FC6             __ptext240 0119             __ptext232 004F             __ptext241 0000  
           __ptext233 0092             __ptext234 006C             __ptext235 00E8             __ptext236 0FDA  
           __ptext237 00B8             __ptext229 055D             __ptext238 0FBA             __ptext239 017F  
            ?___awmod 0070             __pstrings 0003              ?_lcd_clr 0070         ??_send_config 0078  
      __size_of_delay 0030        __size_of_mode1 02A3        __size_of_mode2 01FC             delay@data 0070  
       ??_send_string 0079             _send_char 0FDA          send_cmd@data 0071          send_cmd@ramp 0073  
           _uart_send 0FBA           __stringbase 0008   __end_of_send_config 00B8            ?_send_char 0070  
        send_string@s 007A   __end_of_send_string 0092            ?_uart_send 0070      __size_of___awdiv 0076  
    __size_of___awmod 0066      __size_of_lcd_clr 0014              _lcd_goto 004F         __size_of_main 016C  
            _send_cmd 00E8           _send_config 0092           _send_string 006C           ??_send_char 0078  
           stringcode 0003           ??_uart_send 0070         uart_send@data 0070              stringdir 0003  
            stringtab 0003  
