

HI-TECH Software PIC LITE Macro Assembler V9.80 build 6738 
                                                                                               Wed Jun 20 23:03:39 2012

HI-TECH Software Omniscient Code Generator (Lite mode) build 6738
     1  0000                     opt subtitle "HI-TECH Software Omniscient Code Generator (Lite mode) build 6738"
     2                           
     3                           opt pagewidth 120
     4                           
     5                           	opt lm
     6                           
     7                           	processor	16F876A
     8                           clrc	macro
     9                           	bcf	3,0
    10  0000                     	endm
    11                           clrz	macro
    12                           	bcf	3,2
    13  0000                     	endm
    14                           setc	macro
    15                           	bsf	3,0
    16  0000                     	endm
    17                           setz	macro
    18                           	bsf	3,2
    19  0000                     	endm
    20                           skipc	macro
    21                           	btfss	3,0
    22  0000                     	endm
    23                           skipz	macro
    24                           	btfss	3,2
    25  0000                     	endm
    26                           skipnc	macro
    27                           	btfsc	3,0
    28  0000                     	endm
    29                           skipnz	macro
    30                           	btfsc	3,2
    31  0000                     	endm
    32  0000                     indf	equ	0
    33  0000                     indf0	equ	0
    34  0002                     pc	equ	2
    35  0002                     pcl	equ	2
    36  0003                     status	equ	3
    37  0004                     fsr	equ	4
    38  0004                     fsr0	equ	4
    39  0001                     c	equ	1
    40  0000                     z	equ	0
    41  000A                     pclath	equ	10
    42                           # 13 "C:\Users\Phang\Desktop\9.80\PR 18\PR18.c"
    43                           	psect config,class=CONFIG,delta=2 ;#
    44                           # 13 "C:\Users\Phang\Desktop\9.80\PR 18\PR18.c"
    45  2007  3F32               	dw 0x3F32 ;#
    46                           	FNCALL	_main,_send_config
    47                           	FNCALL	_main,_lcd_clr
    48                           	FNCALL	_main,_lcd_goto
    49                           	FNCALL	_main,_send_string
    50                           	FNCALL	_main,_send_cmd
    51                           	FNCALL	_main,_delay
    52                           	FNCALL	_main,_mode1
    53                           	FNCALL	_main,_mode2
    54                           	FNCALL	_mode2,_lcd_clr
    55                           	FNCALL	_mode2,_lcd_goto
    56                           	FNCALL	_mode2,_send_string
    57                           	FNCALL	_mode2,_send_char
    58                           	FNCALL	_mode2,___awdiv
    59                           	FNCALL	_mode2,___awmod
    60                           	FNCALL	_mode2,_delay
    61                           	FNCALL	_mode2,_send_cmd
    62                           	FNCALL	_mode1,_lcd_goto
    63                           	FNCALL	_mode1,_send_char
    64                           	FNCALL	_mode1,_send_string
    65                           	FNCALL	_mode1,_delay
    66                           	FNCALL	_mode1,_send_cmd
    67                           	FNCALL	_send_string,_send_char
    68                           	FNCALL	_lcd_goto,_send_config
    69                           	FNCALL	_lcd_clr,_send_config
    70                           	FNCALL	_lcd_clr,_delay
    71                           	FNCALL	_send_char,_delay
    72                           	FNCALL	_send_cmd,_uart_send
    73                           	FNCALL	_send_config,_delay
    74                           	FNROOT	_main
    75                           	global	_mode
    76                           	global	_CCP1CON
    77                           psect	text262,local,class=CODE,delta=2
    78                           global __ptext262
    79  0000                     __ptext262:
    80  0017                     _CCP1CON	set	23
    81                           	global	_CCP2CON
    82  001D                     _CCP2CON	set	29
    83                           	global	_CCPR1L
    84  0015                     _CCPR1L	set	21
    85                           	global	_CCPR2L
    86  001B                     _CCPR2L	set	27
    87                           	global	_PORTB
    88  0006                     _PORTB	set	6
    89                           	global	_T2CON
    90  0012                     _T2CON	set	18
    91                           	global	_TXREG
    92  0019                     _TXREG	set	25
    93                           	global	_CREN
    94  00C4                     _CREN	set	196
    95                           	global	_RA0
    96  0028                     _RA0	set	40
    97                           	global	_RA1
    98  0029                     _RA1	set	41
    99                           	global	_RA2
   100  002A                     _RA2	set	42
   101                           	global	_RC3
   102  003B                     _RC3	set	59
   103                           	global	_RC4
   104  003C                     _RC4	set	60
   105                           	global	_RC5
   106  003D                     _RC5	set	61
   107                           	global	_SPEN
   108  00C7                     _SPEN	set	199
   109                           	global	_TXIF
   110  0064                     _TXIF	set	100
   111                           	global	_ADCON1
   112  009F                     _ADCON1	set	159
   113                           	global	_PR2
   114  0092                     _PR2	set	146
   115                           	global	_SPBRG
   116  0099                     _SPBRG	set	153
   117                           	global	_TRISA
   118  0085                     _TRISA	set	133
   119                           	global	_TRISB
   120  0086                     _TRISB	set	134
   121                           	global	_TRISC
   122  0087                     _TRISC	set	135
   123                           	global	_BRGH
   124  04C2                     _BRGH	set	1218
   125                           	global	_TXEN
   126  04C5                     _TXEN	set	1221
   127                           psect	strings,class=STRING,delta=2
   128                           global __pstrings
   129  0003                     __pstrings:
   130                           ;	global	stringdir,stringtab,__stringbase
   131  0003                     stringtab:
   132                           ;	String table - string pointers are 1 byte each
   133  0003                     stringcode:stringdir:
      + 0003                     stringdir:	
   134  0003  3000               movlw high(stringdir)
   135  0004  008A               movwf pclath
   136  0005  0804               movf fsr,w
   137  0006  0A84               incf fsr
   138  0007  0782               	addwf pc
   139  0008                     __stringbase:
   140  0008  3400               	retlw	0
   141                           psect	strings
   142                           	
   143  0009                     STR_5:	
   144  0009  3443               	retlw	67	;'C'
   145  000A  3461               	retlw	97	;'a'
   146  000B  346C               	retlw	108	;'l'
   147  000C  3469               	retlw	105	;'i'
   148  000D  3462               	retlw	98	;'b'
   149  000E  3472               	retlw	114	;'r'
   150  000F  3461               	retlw	97	;'a'
   151  0010  3474               	retlw	116	;'t'
   152  0011  3469               	retlw	105	;'i'
   153  0012  346F               	retlw	111	;'o'
   154  0013  346E               	retlw	110	;'n'
   155  0014  343F               	retlw	63	;'?'
   156  0015  3420               	retlw	32	;' '
   157  0016  3420               	retlw	32	;' '
   158  0017  3400               	retlw	0
   159                           psect	strings
   160                           	
   161  0018                     STR_4:	
   162  0018  3442               	retlw	66	;'B'
   163  0019  3469               	retlw	105	;'i'
   164  001A  3470               	retlw	112	;'p'
   165  001B  3465               	retlw	101	;'e'
   166  001C  3464               	retlw	100	;'d'
   167  001D  3420               	retlw	32	;' '
   168  001E  3457               	retlw	87	;'W'
   169  001F  3461               	retlw	97	;'a'
   170  0020  346C               	retlw	108	;'l'
   171  0021  346B               	retlw	107	;'k'
   172  0022  3469               	retlw	105	;'i'
   173  0023  346E               	retlw	110	;'n'
   174  0024  3467               	retlw	103	;'g'
   175  0025  343F               	retlw	63	;'?'
   176  0026  3400               	retlw	0
   177                           psect	strings
   178                           	
   179  0027                     STR_1:	
   180  0027  3443               	retlw	67	;'C'
   181  0028  3479               	retlw	121	;'y'
   182  0029  3474               	retlw	116	;'t'
   183  002A  3472               	retlw	114	;'r'
   184  002B  346F               	retlw	111	;'o'
   185  002C  346E               	retlw	110	;'n'
   186  002D  3420               	retlw	32	;' '
   187  002E  3454               	retlw	84	;'T'
   188  002F  3465               	retlw	101	;'e'
   189  0030  3463               	retlw	99	;'c'
   190  0031  3468               	retlw	104	;'h'
   191  0032  342E               	retlw	46	;'.'
   192  0033  3400               	retlw	0
   193                           psect	strings
   194                           	
   195  0034                     STR_7:	
   196  0034  3443               	retlw	67	;'C'
   197  0035  3468               	retlw	104	;'h'
   198  0036  3461               	retlw	97	;'a'
   199  0037  346E               	retlw	110	;'n'
   200  0038  346E               	retlw	110	;'n'
   201  0039  3465               	retlw	101	;'e'
   202  003A  346C               	retlw	108	;'l'
   203  003B  343A               	retlw	58	;':'
   204  003C  3400               	retlw	0
   205                           psect	strings
   206                           	
   207  003D                     STR_9:	
   208  003D  3456               	retlw	86	;'V'
   209  003E  3461               	retlw	97	;'a'
   210  003F  346C               	retlw	108	;'l'
   211  0040  3475               	retlw	117	;'u'
   212  0041  3465               	retlw	101	;'e'
   213  0042  343A               	retlw	58	;':'
   214  0043  3420               	retlw	32	;' '
   215  0044  3400               	retlw	0
   216                           psect	strings
   217                           	
   218  0045                     STR_2:	
   219  0045  3450               	retlw	80	;'P'
   220  0046  3452               	retlw	82	;'R'
   221  0047  3431               	retlw	49	;'1'
   222  0048  3438               	retlw	56	;'8'
   223  0049  3400               	retlw	0
   224                           psect	strings
   225                           	
   226  004A                     STR_3:	
   227  004A  344F               	retlw	79	;'O'
   228  004B  344B               	retlw	75	;'K'
   229  004C  3400               	retlw	0
   230                           psect	strings
   231  004A                     STR_8	equ	STR_3+0
   232  0015                     STR_6	equ	STR_5+12
   233                           	file	"PR 18.as"
   234                           	line	#
   235                           psect cinit,class=CODE,delta=2
   236                           global start_initialization
   237  0FA4                     start_initialization:
   238                           
   239                           psect	bssBANK0,class=BANK0,space=1
   240                           global __pbssBANK0
   241  002A                     __pbssBANK0:
   242  002A                     _mode:
   243  002A                            ds      1
   244                           
   245                           ; Clear objects allocated to BANK0
   246                           psect cinit,class=CODE,delta=2
   247  0FA4  01AA               	clrf	((__pbssBANK0)+0)&07Fh
   248                           psect cinit,class=CODE,delta=2
   249                           global end_of_initialization
   250                           
   251                           ;End of C runtime variable initialization code
   252                           
   253  0FA5                     end_of_initialization:
   254  0FA5  0183               clrf status
   255  0FA6  120A  118A  29F3   ljmp _main	;jump to C main() function
   256                           psect	cstackCOMMON,class=COMMON,space=1
   257                           global __pcstackCOMMON
   258  0070                     __pcstackCOMMON:
   259                           	global	?_send_config
   260  0070                     ?_send_config:	; 0 bytes @ 0x0
   261                           	global	?_lcd_clr
   262  0070                     ?_lcd_clr:	; 0 bytes @ 0x0
   263                           	global	?_lcd_goto
   264  0070                     ?_lcd_goto:	; 0 bytes @ 0x0
   265                           	global	?_send_string
   266  0070                     ?_send_string:	; 0 bytes @ 0x0
   267                           	global	?_delay
   268  0070                     ?_delay:	; 0 bytes @ 0x0
   269                           	global	?_mode1
   270  0070                     ?_mode1:	; 0 bytes @ 0x0
   271                           	global	?_mode2
   272  0070                     ?_mode2:	; 0 bytes @ 0x0
   273                           	global	?_send_char
   274  0070                     ?_send_char:	; 0 bytes @ 0x0
   275                           	global	?_main
   276  0070                     ?_main:	; 0 bytes @ 0x0
   277                           	global	?_uart_send
   278  0070                     ?_uart_send:	; 0 bytes @ 0x0
   279                           	global	??_uart_send
   280  0070                     ??_uart_send:	; 0 bytes @ 0x0
   281                           	global	?___awmod
   282  0070                     ?___awmod:	; 2 bytes @ 0x0
   283                           	global	uart_send@data
   284  0070                     uart_send@data:	; 1 bytes @ 0x0
   285                           	global	___awmod@divisor
   286  0070                     ___awmod@divisor:	; 2 bytes @ 0x0
   287                           	global	delay@data
   288  0070                     delay@data:	; 4 bytes @ 0x0
   289  0070                     	ds	1
   290                           	global	?_send_cmd
   291  0071                     ?_send_cmd:	; 0 bytes @ 0x1
   292                           	global	send_cmd@data
   293  0071                     send_cmd@data:	; 2 bytes @ 0x1
   294  0071                     	ds	1
   295                           	global	___awmod@dividend
   296  0072                     ___awmod@dividend:	; 2 bytes @ 0x2
   297  0072                     	ds	1
   298                           	global	send_cmd@ramp
   299  0073                     send_cmd@ramp:	; 2 bytes @ 0x3
   300  0073                     	ds	1
   301                           	global	??_delay
   302  0074                     ??_delay:	; 0 bytes @ 0x4
   303                           	global	??___awmod
   304  0074                     ??___awmod:	; 0 bytes @ 0x4
   305  0074                     	ds	1
   306                           	global	??_send_cmd
   307  0075                     ??_send_cmd:	; 0 bytes @ 0x5
   308                           	global	___awmod@counter
   309  0075                     ___awmod@counter:	; 1 bytes @ 0x5
   310  0075                     	ds	1
   311                           	global	___awmod@sign
   312  0076                     ___awmod@sign:	; 1 bytes @ 0x6
   313  0076                     	ds	1
   314                           	global	?___awdiv
   315  0077                     ?___awdiv:	; 2 bytes @ 0x7
   316                           	global	___awdiv@divisor
   317  0077                     ___awdiv@divisor:	; 2 bytes @ 0x7
   318  0077                     	ds	1
   319                           	global	??_send_config
   320  0078                     ??_send_config:	; 0 bytes @ 0x8
   321                           	global	??_send_char
   322  0078                     ??_send_char:	; 0 bytes @ 0x8
   323                           	global	send_config@data
   324  0078                     send_config@data:	; 1 bytes @ 0x8
   325                           	global	send_char@data
   326  0078                     send_char@data:	; 1 bytes @ 0x8
   327                           	global	send_cmd@num
   328  0078                     send_cmd@num:	; 1 bytes @ 0x8
   329  0078                     	ds	1
   330                           	global	??_lcd_clr
   331  0079                     ??_lcd_clr:	; 0 bytes @ 0x9
   332                           	global	??_lcd_goto
   333  0079                     ??_lcd_goto:	; 0 bytes @ 0x9
   334                           	global	??_send_string
   335  0079                     ??_send_string:	; 0 bytes @ 0x9
   336                           	global	send_cmd@higher_byte
   337  0079                     send_cmd@higher_byte:	; 1 bytes @ 0x9
   338                           	global	___awdiv@dividend
   339  0079                     ___awdiv@dividend:	; 2 bytes @ 0x9
   340  0079                     	ds	1
   341                           	global	lcd_goto@data
   342  007A                     lcd_goto@data:	; 1 bytes @ 0xA
   343                           	global	send_string@s
   344  007A                     send_string@s:	; 1 bytes @ 0xA
   345                           	global	send_cmd@lower_byte
   346  007A                     send_cmd@lower_byte:	; 1 bytes @ 0xA
   347  007A                     	ds	1
   348                           	global	??_mode1
   349  007B                     ??_mode1:	; 0 bytes @ 0xB
   350                           	global	??___awdiv
   351  007B                     ??___awdiv:	; 0 bytes @ 0xB
   352  007B                     	ds	1
   353                           	global	??_mode2
   354  007C                     ??_mode2:	; 0 bytes @ 0xC
   355  007C                     	ds	2
   356                           psect	cstackBANK0,class=BANK0,space=1
   357                           global __pcstackBANK0
   358  0020                     __pcstackBANK0:
   359                           	global	___awdiv@counter
   360  0020                     ___awdiv@counter:	; 1 bytes @ 0x0
   361  0020                     	ds	1
   362                           	global	___awdiv@sign
   363  0021                     ___awdiv@sign:	; 1 bytes @ 0x1
   364  0021                     	ds	1
   365                           	global	___awdiv@quotient
   366  0022                     ___awdiv@quotient:	; 2 bytes @ 0x2
   367  0022                     	ds	2
   368                           	global	mode2@value
   369  0024                     mode2@value:	; 2 bytes @ 0x4
   370  0024                     	ds	2
   371                           	global	mode2@value_temp
   372  0026                     mode2@value_temp:	; 2 bytes @ 0x6
   373  0026                     	ds	2
   374                           	global	mode2@channel
   375  0028                     mode2@channel:	; 1 bytes @ 0x8
   376  0028                     	ds	1
   377                           	global	??_main
   378  0029                     ??_main:	; 0 bytes @ 0x9
   379  0029                     	ds	1
   380 ;;Data sizes: Strings 68, constant 0, data 0, bss 1, persistent 0 stack 0
   381 ;;Auto spaces:   Size  Autos    Used
   382 ;; COMMON          14     14      14
   383 ;; BANK0           80     10      11
   384 ;; BANK1           80      0       0
   385 ;; BANK3           96      0       0
   386 ;; BANK2           96      0       0
   387                           
   388 ;;
   389 ;; Pointer list with targets:
   390                           
   391 ;; ?___awmod	int  size(1) Largest target is 0
   392 ;;
   393 ;; ?___awdiv	int  size(1) Largest target is 0
   394 ;;
   395 ;; send_string@s	PTR const unsigned char  size(1) Largest target is 15
   396 ;;		 -> STR_9(CODE[8]), STR_8(CODE[3]), STR_7(CODE[9]), STR_6(CODE[3]), 
   397 ;;		 -> STR_5(CODE[15]), STR_4(CODE[15]), STR_3(CODE[3]), STR_2(CODE[5]), 
   398 ;;		 -> STR_1(CODE[13]), 
   399 ;;
   400                           
   401                           
   402 ;;
   403 ;; Critical Paths under _main in COMMON
   404 ;;
   405 ;;   _main->_mode2
   406 ;;   _mode2->___awdiv
   407 ;;   _mode1->_lcd_goto
   408 ;;   _mode1->_send_string
   409 ;;   _mode1->_send_cmd
   410 ;;   _send_string->_send_char
   411 ;;   _lcd_goto->_send_config
   412 ;;   _lcd_clr->_send_config
   413 ;;   _send_char->_delay
   414 ;;   _send_cmd->_uart_send
   415 ;;   _send_config->_delay
   416 ;;   ___awdiv->___awmod
   417 ;;
   418 ;; Critical Paths under _main in BANK0
   419 ;;
   420 ;;   _main->_mode2
   421 ;;   _mode2->___awdiv
   422 ;;
   423 ;; Critical Paths under _main in BANK1
   424 ;;
   425 ;;   None.
   426 ;;
   427 ;; Critical Paths under _main in BANK3
   428 ;;
   429 ;;   None.
   430 ;;
   431 ;; Critical Paths under _main in BANK2
   432 ;;
   433 ;;   None.
   434                           
   435 ;;
   436 ;;Main: autosize = 0, tempsize = 1, incstack = 0, save=0
   437 ;;
   438                           
   439 ;;
   440 ;;Call Graph Tables:
   441 ;;
   442 ;; ---------------------------------------------------------------------------------
   443 ;; (Depth) Function   	        Calls       Base Space   Used Autos Params    Refs
   444 ;; ---------------------------------------------------------------------------------
   445 ;; (0) _main                                                 1     1      0    2882
   446 ;;                                              9 BANK0      1     1      0
   447 ;;                        _send_config
   448 ;;                            _lcd_clr
   449 ;;                           _lcd_goto
   450 ;;                        _send_string
   451 ;;                           _send_cmd
   452 ;;                              _delay
   453 ;;                              _mode1
   454 ;;                              _mode2
   455 ;; ---------------------------------------------------------------------------------
   456 ;; (1) _mode2                                                7     7      0    1650
   457 ;;                                             12 COMMON     2     2      0
   458 ;;                                              4 BANK0      5     5      0
   459 ;;                            _lcd_clr
   460 ;;                           _lcd_goto
   461 ;;                        _send_string
   462 ;;                          _send_char
   463 ;;                            ___awdiv
   464 ;;                            ___awmod
   465 ;;                              _delay
   466 ;;                           _send_cmd
   467 ;; ---------------------------------------------------------------------------------
   468 ;; (1) _mode1                                                0     0      0     560
   469 ;;                           _lcd_goto
   470 ;;                          _send_char
   471 ;;                        _send_string
   472 ;;                              _delay
   473 ;;                           _send_cmd
   474 ;; ---------------------------------------------------------------------------------
   475 ;; (2) _send_string                                          2     2      0     134
   476 ;;                                              9 COMMON     2     2      0
   477 ;;                          _send_char
   478 ;; ---------------------------------------------------------------------------------
   479 ;; (2) _lcd_goto                                             2     2      0     156
   480 ;;                                              9 COMMON     2     2      0
   481 ;;                        _send_config
   482 ;; ---------------------------------------------------------------------------------
   483 ;; (2) _lcd_clr                                              0     0      0     112
   484 ;;                        _send_config
   485 ;;                              _delay
   486 ;; ---------------------------------------------------------------------------------
   487 ;; (2) _send_char                                            1     1      0      67
   488 ;;                                              8 COMMON     1     1      0
   489 ;;                              _delay
   490 ;; ---------------------------------------------------------------------------------
   491 ;; (2) _send_cmd                                            10     6      4     158
   492 ;;                                              1 COMMON    10     6      4
   493 ;;                          _uart_send
   494 ;; ---------------------------------------------------------------------------------
   495 ;; (3) _send_config                                          1     1      0      67
   496 ;;                                              8 COMMON     1     1      0
   497 ;;                              _delay
   498 ;; ---------------------------------------------------------------------------------
   499 ;; (2) ___awmod                                              7     3      4     296
   500 ;;                                              0 COMMON     7     3      4
   501 ;; ---------------------------------------------------------------------------------
   502 ;; (2) ___awdiv                                              9     5      4     300
   503 ;;                                              7 COMMON     5     1      4
   504 ;;                                              0 BANK0      4     4      0
   505 ;;                            ___awmod (ARG)
   506 ;; ---------------------------------------------------------------------------------
   507 ;; (3) _uart_send                                            1     1      0      22
   508 ;;                                              0 COMMON     1     1      0
   509 ;; ---------------------------------------------------------------------------------
   510 ;; (2) _delay                                                8     4      4      45
   511 ;;                                              0 COMMON     8     4      4
   512 ;; ---------------------------------------------------------------------------------
   513 ;; Estimated maximum stack depth 3
   514 ;; ---------------------------------------------------------------------------------
   515                           
   516 ;; Call Graph Graphs:
   517                           
   518 ;; _main (ROOT)
   519 ;;   _send_config
   520 ;;     _delay
   521 ;;   _lcd_clr
   522 ;;     _send_config
   523 ;;       _delay
   524 ;;     _delay
   525 ;;   _lcd_goto
   526 ;;     _send_config
   527 ;;       _delay
   528 ;;   _send_string
   529 ;;     _send_char
   530 ;;       _delay
   531 ;;   _send_cmd
   532 ;;     _uart_send
   533 ;;   _delay
   534 ;;   _mode1
   535 ;;     _lcd_goto
   536 ;;       _send_config
   537 ;;         _delay
   538 ;;     _send_char
   539 ;;       _delay
   540 ;;     _send_string
   541 ;;       _send_char
   542 ;;         _delay
   543 ;;     _delay
   544 ;;     _send_cmd
   545 ;;       _uart_send
   546 ;;   _mode2
   547 ;;     _lcd_clr
   548 ;;       _send_config
   549 ;;         _delay
   550 ;;       _delay
   551 ;;     _lcd_goto
   552 ;;       _send_config
   553 ;;         _delay
   554 ;;     _send_string
   555 ;;       _send_char
   556 ;;         _delay
   557 ;;     _send_char
   558 ;;       _delay
   559 ;;     ___awdiv
   560 ;;       ___awmod (ARG)
   561 ;;     ___awmod
   562 ;;     _delay
   563 ;;     _send_cmd
   564 ;;       _uart_send
   565 ;;
   566                           
   567 ;; Address spaces:
   568                           
   569 ;;Name               Size   Autos  Total    Cost      Usage
   570 ;;BITCOMMON            E      0       0       0        0.0%
   571 ;;EEDATA             100      0       0       0        0.0%
   572 ;;NULL                 0      0       0       0        0.0%
   573 ;;CODE                 0      0       0       0        0.0%
   574 ;;COMMON               E      E       E       1      100.0%
   575 ;;BITSFR0              0      0       0       1        0.0%
   576 ;;SFR0                 0      0       0       1        0.0%
   577 ;;BITSFR1              0      0       0       2        0.0%
   578 ;;SFR1                 0      0       0       2        0.0%
   579 ;;STACK                0      0       4       2        0.0%
   580 ;;ABS                  0      0      19       3        0.0%
   581 ;;BITBANK0            50      0       0       4        0.0%
   582 ;;BITSFR3              0      0       0       4        0.0%
   583 ;;SFR3                 0      0       0       4        0.0%
   584 ;;BANK0               50      A       B       5       13.8%
   585 ;;BITSFR2              0      0       0       5        0.0%
   586 ;;SFR2                 0      0       0       5        0.0%
   587 ;;BITBANK1            50      0       0       6        0.0%
   588 ;;BANK1               50      0       0       7        0.0%
   589 ;;BITBANK3            60      0       0       8        0.0%
   590 ;;BANK3               60      0       0       9        0.0%
   591 ;;BITBANK2            60      0       0      10        0.0%
   592 ;;BANK2               60      0       0      11        0.0%
   593 ;;DATA                 0      0      1D      12        0.0%
   594                           
   595                           	global	_main
   596                           psect	maintext,global,class=CODE,delta=2
   597                           global __pmaintext
   598  01F3                     __pmaintext:
   599                           
   600 ;; *************** function _main *****************
   601 ;; Defined at:
   602 ;;		line 66 in file "C:\Users\Phang\Desktop\9.80\PR 18\PR18.c"
   603 ;; Parameters:    Size  Location     Type
   604 ;;		None
   605 ;; Auto vars:     Size  Location     Type
   606 ;;		None
   607 ;; Return value:  Size  Location     Type
   608 ;;		None               void
   609 ;; Registers used:
   610 ;;		wreg, fsr0l, fsr0h, status,2, status,0, btemp+1, pclath, cstack
   611 ;; Tracked objects:
   612 ;;		On entry : 17F/0
   613 ;;		On exit  : 0/0
   614 ;;		Unchanged: 0/0
   615 ;; Data sizes:     COMMON   BANK0   BANK1   BANK3   BANK2
   616 ;;      Params:         0       0       0       0       0
   617 ;;      Locals:         0       0       0       0       0
   618 ;;      Temps:          0       1       0       0       0
   619 ;;      Totals:         0       1       0       0       0
   620 ;;Total ram usage:        1 bytes
   621 ;; Hardware stack levels required when called:    4
   622 ;; This function calls:
   623 ;;		_send_config
   624 ;;		_lcd_clr
   625 ;;		_lcd_goto
   626 ;;		_send_string
   627 ;;		_send_cmd
   628 ;;		_delay
   629 ;;		_mode1
   630 ;;		_mode2
   631 ;; This function is called by:
   632 ;;		Startup code after reset
   633 ;; This function uses a non-reentrant model
   634 ;;
   635                           psect	maintext
   636                           	file	"C:\Users\Phang\Desktop\9.80\PR 18\PR18.c"
   637                           	line	66
   638                           	global	__size_of_main
   639  016C                     	__size_of_main	equ	__end_of_main-_main
   640                           	
   641  01F3                     _main:	
   642                           	opt	stack 4
   643                           ; Regs used in _main: [wreg-fsr0h+status,2+status,0+btemp+1+pclath+cstack]
   644                           	line	68
   645                           	
   646  01F3                     l2549:	
   647                           ;PR18.c: 68: TRISB = 0b00000000;
   648  01F3  1683               	bsf	status, 5	;RP0=1, select bank1
   649  01F4  1303               	bcf	status, 6	;RP1=0, select bank1
   650  01F5  0186               	clrf	(134)^080h	;volatile
   651                           	line	69
   652                           	
   653  01F6                     l2551:	
   654                           ;PR18.c: 69: TRISC = 0b10000000;
   655  01F6  3080               	movlw	(080h)
   656  01F7  0087               	movwf	(135)^080h	;volatile
   657                           	line	70
   658                           	
   659  01F8                     l2553:	
   660                           ;PR18.c: 70: TRISA = 0b00000111;
   661  01F8  3007               	movlw	(07h)
   662  01F9  0085               	movwf	(133)^080h	;volatile
   663                           	line	73
   664                           	
   665  01FA                     l2555:	
   666                           ;PR18.c: 73: SPBRG = 31;
   667  01FA  301F               	movlw	(01Fh)
   668  01FB  0099               	movwf	(153)^080h	;volatile
   669                           	line	74
   670                           	
   671  01FC                     l2557:	
   672                           ;PR18.c: 74: BRGH = 0;
   673  01FC  1118               	bcf	(1218/8)^080h,(1218)&7
   674                           	line	75
   675                           	
   676  01FD                     l2559:	
   677                           ;PR18.c: 75: TXEN = 1;
   678  01FD  1698               	bsf	(1221/8)^080h,(1221)&7
   679                           	line	76
   680                           	
   681  01FE                     l2561:	
   682                           ;PR18.c: 76: CREN = 1;
   683  01FE  1283               	bcf	status, 5	;RP0=0, select bank0
   684  01FF  1303               	bcf	status, 6	;RP1=0, select bank0
   685  0200  1618               	bsf	(196/8),(196)&7
   686                           	line	77
   687                           	
   688  0201                     l2563:	
   689                           ;PR18.c: 77: SPEN = 1;
   690  0201  1798               	bsf	(199/8),(199)&7
   691                           	line	80
   692                           	
   693  0202                     l2565:	
   694                           ;PR18.c: 80: ADCON1 = 0b00000110;
   695  0202  3006               	movlw	(06h)
   696  0203  1683               	bsf	status, 5	;RP0=1, select bank1
   697  0204  1303               	bcf	status, 6	;RP1=0, select bank1
   698  0205  009F               	movwf	(159)^080h	;volatile
   699                           	line	83
   700                           	
   701  0206                     l2567:	
   702                           ;PR18.c: 83: send_config(0b00000001);
   703  0206  3001               	movlw	(01h)
   704  0207  120A  158A  27DA   	fcall	_send_config
              120A  118A         
   705                           	line	84
   706                           	
   707  020C                     l2569:	
   708                           ;PR18.c: 84: send_config(0b00000010);
   709  020C  3002               	movlw	(02h)
   710  020D  120A  158A  27DA   	fcall	_send_config
              120A  118A         
   711                           	line	85
   712                           	
   713  0212                     l2571:	
   714                           ;PR18.c: 85: send_config(0b00000110);
   715  0212  3006               	movlw	(06h)
   716  0213  120A  158A  27DA   	fcall	_send_config
              120A  118A         
   717                           	line	86
   718                           	
   719  0218                     l2573:	
   720                           ;PR18.c: 86: send_config(0b00001100);
   721  0218  300C               	movlw	(0Ch)
   722  0219  120A  158A  27DA   	fcall	_send_config
              120A  118A         
   723                           	line	87
   724                           	
   725  021E                     l2575:	
   726                           ;PR18.c: 87: send_config(0b00111000);
   727  021E  3038               	movlw	(038h)
   728  021F  120A  158A  27DA   	fcall	_send_config
              120A  118A         
   729                           	line	90
   730                           	
   731  0224                     l2577:	
   732                           ;PR18.c: 90: CCP1CON = 0b00001100;
   733  0224  300C               	movlw	(0Ch)
   734  0225  1283               	bcf	status, 5	;RP0=0, select bank0
   735  0226  1303               	bcf	status, 6	;RP1=0, select bank0
   736  0227  0097               	movwf	(23)	;volatile
   737                           	line	91
   738                           	
   739  0228                     l2579:	
   740                           ;PR18.c: 91: CCP2CON = 0b00001100;
   741  0228  300C               	movlw	(0Ch)
   742  0229  009D               	movwf	(29)	;volatile
   743                           	line	92
   744                           	
   745  022A                     l2581:	
   746                           ;PR18.c: 92: PR2 = 0xFF;
   747  022A  30FF               	movlw	(0FFh)
   748  022B  1683               	bsf	status, 5	;RP0=1, select bank1
   749  022C  1303               	bcf	status, 6	;RP1=0, select bank1
   750  022D  0092               	movwf	(146)^080h	;volatile
   751                           	line	93
   752                           	
   753  022E                     l2583:	
   754                           ;PR18.c: 93: T2CON = 0b00000101;
   755  022E  3005               	movlw	(05h)
   756  022F  1283               	bcf	status, 5	;RP0=0, select bank0
   757  0230  1303               	bcf	status, 6	;RP1=0, select bank0
   758  0231  0092               	movwf	(18)	;volatile
   759                           	line	94
   760                           	
   761  0232                     l2585:	
   762                           ;PR18.c: 94: CCPR1L = 50;
   763  0232  3032               	movlw	(032h)
   764  0233  0095               	movwf	(21)	;volatile
   765                           	line	95
   766                           	
   767  0234                     l2587:	
   768                           ;PR18.c: 95: CCPR2L = 50;
   769  0234  3032               	movlw	(032h)
   770  0235  009B               	movwf	(27)	;volatile
   771                           	line	98
   772                           	
   773  0236                     l2589:	
   774                           ;PR18.c: 98: lcd_clr();
   775  0236  120A  158A  27A9   	fcall	_lcd_clr
              120A  118A         
   776                           	line	99
   777                           	
   778  023B                     l2591:	
   779                           ;PR18.c: 99: lcd_goto(0);
   780  023B  3000               	movlw	(0)
   781  023C  120A  158A  27BD   	fcall	_lcd_goto
              120A  118A         
   782                           	line	100
   783                           	
   784  0241                     l2593:	
   785                           ;PR18.c: 100: send_string("Cytron Tech.");
   786  0241  301F               	movlw	((STR_1-__stringbase))&0ffh
   787  0242  120A  118A  207F   	fcall	_send_string
              120A  118A         
   788                           	line	101
   789                           	
   790  0247                     l2595:	
   791                           ;PR18.c: 101: lcd_goto(20);
   792  0247  3014               	movlw	(014h)
   793  0248  120A  158A  27BD   	fcall	_lcd_goto
              120A  118A         
   794                           	line	102
   795                           	
   796  024D                     l2597:	
   797                           ;PR18.c: 102: send_string("PR18");
   798  024D  303D               	movlw	((STR_2-__stringbase))&0ffh
   799  024E  120A  118A  207F   	fcall	_send_string
              120A  118A         
   800                           	line	109
   801                           	
   802  0253                     l2599:	
   803                           ;PR18.c: 109: send_cmd(0x4A, 732, 0);
   804  0253  30DC               	movlw	low(02DCh)
   805  0254  00F1               	movwf	(?_send_cmd)
   806  0255  3002               	movlw	high(02DCh)
   807  0256  00F2               	movwf	((?_send_cmd))+1
   808  0257  3000               	movlw	low(0)
   809  0258  00F3               	movwf	0+(?_send_cmd)+02h
   810  0259  3000               	movlw	high(0)
   811  025A  00F4               	movwf	(0+(?_send_cmd)+02h)+1
   812  025B  304A               	movlw	(04Ah)
   813  025C  120A  118A  20D5   	fcall	_send_cmd
              120A  118A         
   814                           	line	110
   815                           	
   816  0261                     l2601:	
   817                           ;PR18.c: 110: send_cmd(0x4B, 732, 0);
   818  0261  30DC               	movlw	low(02DCh)
   819  0262  00F1               	movwf	(?_send_cmd)
   820  0263  3002               	movlw	high(02DCh)
   821  0264  00F2               	movwf	((?_send_cmd))+1
   822  0265  3000               	movlw	low(0)
   823  0266  00F3               	movwf	0+(?_send_cmd)+02h
   824  0267  3000               	movlw	high(0)
   825  0268  00F4               	movwf	(0+(?_send_cmd)+02h)+1
   826  0269  304B               	movlw	(04Bh)
   827  026A  120A  118A  20D5   	fcall	_send_cmd
              120A  118A         
   828                           	line	111
   829                           	
   830  026F                     l2603:	
   831                           ;PR18.c: 111: send_cmd(0x4C, 732, 0);
   832  026F  30DC               	movlw	low(02DCh)
   833  0270  00F1               	movwf	(?_send_cmd)
   834  0271  3002               	movlw	high(02DCh)
   835  0272  00F2               	movwf	((?_send_cmd))+1
   836  0273  3000               	movlw	low(0)
   837  0274  00F3               	movwf	0+(?_send_cmd)+02h
   838  0275  3000               	movlw	high(0)
   839  0276  00F4               	movwf	(0+(?_send_cmd)+02h)+1
   840  0277  304C               	movlw	(04Ch)
   841  0278  120A  118A  20D5   	fcall	_send_cmd
              120A  118A         
   842                           	line	113
   843                           	
   844  027D                     l2605:	
   845                           ;PR18.c: 113: send_cmd(0x47, 732, 0);
   846  027D  30DC               	movlw	low(02DCh)
   847  027E  00F1               	movwf	(?_send_cmd)
   848  027F  3002               	movlw	high(02DCh)
   849  0280  00F2               	movwf	((?_send_cmd))+1
   850  0281  3000               	movlw	low(0)
   851  0282  00F3               	movwf	0+(?_send_cmd)+02h
   852  0283  3000               	movlw	high(0)
   853  0284  00F4               	movwf	(0+(?_send_cmd)+02h)+1
   854  0285  3047               	movlw	(047h)
   855  0286  120A  118A  20D5   	fcall	_send_cmd
              120A  118A         
   856                           	line	114
   857                           	
   858  028B                     l2607:	
   859                           ;PR18.c: 114: send_cmd(0x48, 732, 0);
   860  028B  30DC               	movlw	low(02DCh)
   861  028C  00F1               	movwf	(?_send_cmd)
   862  028D  3002               	movlw	high(02DCh)
   863  028E  00F2               	movwf	((?_send_cmd))+1
   864  028F  3000               	movlw	low(0)
   865  0290  00F3               	movwf	0+(?_send_cmd)+02h
   866  0291  3000               	movlw	high(0)
   867  0292  00F4               	movwf	(0+(?_send_cmd)+02h)+1
   868  0293  3048               	movlw	(048h)
   869  0294  120A  118A  20D5   	fcall	_send_cmd
              120A  118A         
   870                           	line	115
   871                           	
   872  0299                     l2609:	
   873                           ;PR18.c: 115: send_cmd(0x49, 732, 0);
   874  0299  30DC               	movlw	low(02DCh)
   875  029A  00F1               	movwf	(?_send_cmd)
   876  029B  3002               	movlw	high(02DCh)
   877  029C  00F2               	movwf	((?_send_cmd))+1
   878  029D  3000               	movlw	low(0)
   879  029E  00F3               	movwf	0+(?_send_cmd)+02h
   880  029F  3000               	movlw	high(0)
   881  02A0  00F4               	movwf	(0+(?_send_cmd)+02h)+1
   882  02A1  3049               	movlw	(049h)
   883  02A2  120A  118A  20D5   	fcall	_send_cmd
              120A  118A         
   884                           	line	117
   885                           	
   886  02A7                     l2611:	
   887                           ;PR18.c: 117: delay(200000);
   888  02A7  3000               	movlw	0
   889  02A8  00F3               	movwf	(?_delay+3)
   890  02A9  3003               	movlw	03h
   891  02AA  00F2               	movwf	(?_delay+2)
   892  02AB  300D               	movlw	0Dh
   893  02AC  00F1               	movwf	(?_delay+1)
   894  02AD  3040               	movlw	040h
   895  02AE  00F0               	movwf	(?_delay)
   896                           
   897  02AF  120A  118A  20A5   	fcall	_delay
              120A  118A         
   898                           	line	119
   899                           	
   900  02B4                     l2613:	
   901                           ;PR18.c: 119: mode = 1;
   902  02B4  1283               	bcf	status, 5	;RP0=0, select bank0
   903  02B5  1303               	bcf	status, 6	;RP1=0, select bank0
   904  02B6  01AA               	clrf	(_mode)
   905  02B7  1403               	bsf	status,0
   906  02B8  0DAA               	rlf	(_mode),f
   907  02B9  2ABA               	goto	l2615
   908                           	line	121
   909                           ;PR18.c: 121: while(1)
   910                           	
   911  02BA                     l515:	
   912                           	line	123
   913                           	
   914  02BA                     l2615:	
   915                           ;PR18.c: 122: {
   916                           ;PR18.c: 123: lcd_clr();
   917  02BA  120A  158A  27A9   	fcall	_lcd_clr
              120A  118A         
   918                           	line	124
   919                           	
   920  02BF                     l2617:	
   921                           ;PR18.c: 124: lcd_goto(20);
   922  02BF  3014               	movlw	(014h)
   923  02C0  120A  158A  27BD   	fcall	_lcd_goto
              120A  118A         
   924                           	line	125
   925                           	
   926  02C5                     l2619:	
   927                           ;PR18.c: 125: send_string("OK");
   928  02C5  3042               	movlw	((STR_3-__stringbase))&0ffh
   929  02C6  120A  118A  207F   	fcall	_send_string
              120A  118A         
   930                           	line	127
   931                           ;PR18.c: 127: while(RA2)
   932  02CB  2B19               	goto	l2641
   933                           	
   934  02CC                     l517:	
   935                           	line	129
   936                           ;PR18.c: 128: {
   937                           ;PR18.c: 129: if(!RA0)
   938  02CC  1805               	btfsc	(40/8),(40)&7
   939  02CD  2ACF               	goto	u2831
   940  02CE  2AD0               	goto	u2830
   941  02CF                     u2831:
   942  02CF  2ADA               	goto	l518
   943  02D0                     u2830:
   944                           	line	132
   945                           	
   946  02D0                     l2621:	
   947                           ;PR18.c: 130: {
   948                           ;PR18.c: 132: if(mode > 1)
   949  02D0  3002               	movlw	(02h)
   950  02D1  022A               	subwf	(_mode),w
   951  02D2  1C03               	skipc
   952  02D3  2AD5               	goto	u2841
   953  02D4  2AD6               	goto	u2840
   954  02D5                     u2841:
   955  02D5  2AEB               	goto	l2629
   956  02D6                     u2840:
   957                           	line	133
   958                           	
   959  02D6                     l2623:	
   960                           ;PR18.c: 133: mode--;
   961  02D6  3001               	movlw	low(01h)
   962  02D7  02AA               	subwf	(_mode),f
   963  02D8  2AEB               	goto	l2629
   964                           	
   965  02D9                     l519:	
   966                           	line	134
   967                           ;PR18.c: 134: }
   968  02D9  2AEB               	goto	l2629
   969                           	line	135
   970                           	
   971  02DA                     l518:	
   972                           ;PR18.c: 135: else if(!RA1)
   973  02DA  1885               	btfsc	(41/8),(41)&7
   974  02DB  2ADD               	goto	u2851
   975  02DC  2ADE               	goto	u2850
   976  02DD                     u2851:
   977  02DD  2AEB               	goto	l2629
   978  02DE                     u2850:
   979                           	line	138
   980                           	
   981  02DE                     l2625:	
   982                           ;PR18.c: 136: {
   983                           ;PR18.c: 138: if(mode < 2)
   984  02DE  3002               	movlw	(02h)
   985  02DF  022A               	subwf	(_mode),w
   986  02E0  1803               	skipnc
   987  02E1  2AE3               	goto	u2861
   988  02E2  2AE4               	goto	u2860
   989  02E3                     u2861:
   990  02E3  2AEB               	goto	l2629
   991  02E4                     u2860:
   992                           	line	139
   993                           	
   994  02E4                     l2627:	
   995                           ;PR18.c: 139: mode++;
   996  02E4  3001               	movlw	(01h)
   997  02E5  00A9               	movwf	(??_main+0)+0
   998  02E6  0829               	movf	(??_main+0)+0,w
   999  02E7  07AA               	addwf	(_mode),f
  1000  02E8  2AEB               	goto	l2629
  1001                           	
  1002  02E9                     l522:	
  1003  02E9  2AEB               	goto	l2629
  1004                           	line	140
  1005                           	
  1006  02EA                     l521:	
  1007  02EA  2AEB               	goto	l2629
  1008                           	line	143
  1009                           	
  1010  02EB                     l520:	
  1011                           	
  1012  02EB                     l2629:	
  1013                           ;PR18.c: 140: }
  1014                           ;PR18.c: 143: lcd_goto(0);
  1015  02EB  3000               	movlw	(0)
  1016  02EC  120A  158A  27BD   	fcall	_lcd_goto
              120A  118A         
  1017                           	line	144
  1018                           ;PR18.c: 144: switch(mode)
  1019  02F1  2B01               	goto	l2637
  1020                           	line	146
  1021                           ;PR18.c: 145: {
  1022                           ;PR18.c: 146: case 1 : send_string("Biped Walking?");
  1023                           	
  1024  02F2                     l524:	
  1025                           	
  1026  02F2                     l2631:	
  1027  02F2  3010               	movlw	((STR_4-__stringbase))&0ffh
  1028  02F3  120A  118A  207F   	fcall	_send_string
              120A  118A         
  1029                           	line	147
  1030                           ;PR18.c: 147: break;
  1031  02F8  2B0B               	goto	l2639
  1032                           	line	149
  1033                           ;PR18.c: 149: case 2 : send_string("Calibration?  ");
  1034                           	
  1035  02F9                     l526:	
  1036                           	
  1037  02F9                     l2633:	
  1038  02F9  3001               	movlw	((STR_5-__stringbase))&0ffh
  1039  02FA  120A  118A  207F   	fcall	_send_string
              120A  118A         
  1040                           	line	150
  1041                           ;PR18.c: 150: break;
  1042  02FF  2B0B               	goto	l2639
  1043                           	line	151
  1044                           	
  1045  0300                     l2635:	
  1046                           ;PR18.c: 151: }
  1047  0300  2B0B               	goto	l2639
  1048                           	line	144
  1049                           	
  1050  0301                     l523:	
  1051                           	
  1052  0301                     l2637:	
  1053  0301  1283               	bcf	status, 5	;RP0=0, select bank0
  1054  0302  1303               	bcf	status, 6	;RP1=0, select bank0
  1055  0303  082A               	movf	(_mode),w
  1056                           	; Switch size 1, requested type "space"
  1057                           ; Number of cases is 2, Range of values is 1 to 2
  1058                           ; switch strategies available:
  1059                           ; Name         Bytes Cycles
  1060                           ; simple_byte     7     4 (average)
  1061                           ; direct_byte    28    22 (fixed)
  1062                           ;	Chosen strategy is simple_byte
  1063                           
  1064  0304  3A01               	xorlw	1^0	; case 1
  1065  0305  1903               	skipnz
  1066  0306  2AF2               	goto	l2631
  1067  0307  3A03               	xorlw	2^1	; case 2
  1068  0308  1903               	skipnz
  1069  0309  2AF9               	goto	l2633
  1070  030A  2B0B               	goto	l2639
  1071                           
  1072                           	line	151
  1073                           	
  1074  030B                     l525:	
  1075                           	line	153
  1076                           	
  1077  030B                     l2639:	
  1078                           ;PR18.c: 153: delay(30000);
  1079  030B  3000               	movlw	0
  1080  030C  00F3               	movwf	(?_delay+3)
  1081  030D  3000               	movlw	0
  1082  030E  00F2               	movwf	(?_delay+2)
  1083  030F  3075               	movlw	075h
  1084  0310  00F1               	movwf	(?_delay+1)
  1085  0311  3030               	movlw	030h
  1086  0312  00F0               	movwf	(?_delay)
  1087                           
  1088  0313  120A  118A  20A5   	fcall	_delay
              120A  118A         
  1089  0318  2B19               	goto	l2641
  1090                           	line	155
  1091                           	
  1092  0319                     l516:	
  1093                           	line	127
  1094                           	
  1095  0319                     l2641:	
  1096  0319  1283               	bcf	status, 5	;RP0=0, select bank0
  1097  031A  1303               	bcf	status, 6	;RP1=0, select bank0
  1098  031B  1905               	btfsc	(42/8),(42)&7
  1099  031C  2B1E               	goto	u2871
  1100  031D  2B1F               	goto	u2870
  1101  031E                     u2871:
  1102  031E  2ACC               	goto	l517
  1103  031F                     u2870:
  1104  031F  2B20               	goto	l2643
  1105                           	
  1106  0320                     l527:	
  1107                           	line	157
  1108                           	
  1109  0320                     l2643:	
  1110                           ;PR18.c: 155: }
  1111                           ;PR18.c: 157: delay(10000);
  1112  0320  3000               	movlw	0
  1113  0321  00F3               	movwf	(?_delay+3)
  1114  0322  3000               	movlw	0
  1115  0323  00F2               	movwf	(?_delay+2)
  1116  0324  3027               	movlw	027h
  1117  0325  00F1               	movwf	(?_delay+1)
  1118  0326  3010               	movlw	010h
  1119  0327  00F0               	movwf	(?_delay)
  1120                           
  1121  0328  120A  118A  20A5   	fcall	_delay
              120A  118A         
  1122                           	line	158
  1123                           ;PR18.c: 158: while(!RA2);
  1124  032D  2B2E               	goto	l528
  1125                           	
  1126  032E                     l529:	
  1127                           	
  1128  032E                     l528:	
  1129  032E  1283               	bcf	status, 5	;RP0=0, select bank0
  1130  032F  1303               	bcf	status, 6	;RP1=0, select bank0
  1131  0330  1D05               	btfss	(42/8),(42)&7
  1132  0331  2B33               	goto	u2881
  1133  0332  2B34               	goto	u2880
  1134  0333                     u2881:
  1135  0333  2B2E               	goto	l528
  1136  0334                     u2880:
  1137  0334  2B35               	goto	l2645
  1138                           	
  1139  0335                     l530:	
  1140                           	line	159
  1141                           	
  1142  0335                     l2645:	
  1143                           ;PR18.c: 159: delay(10000);
  1144  0335  3000               	movlw	0
  1145  0336  00F3               	movwf	(?_delay+3)
  1146  0337  3000               	movlw	0
  1147  0338  00F2               	movwf	(?_delay+2)
  1148  0339  3027               	movlw	027h
  1149  033A  00F1               	movwf	(?_delay+1)
  1150  033B  3010               	movlw	010h
  1151  033C  00F0               	movwf	(?_delay)
  1152                           
  1153  033D  120A  118A  20A5   	fcall	_delay
              120A  118A         
  1154                           	line	161
  1155                           ;PR18.c: 161: switch(mode)
  1156  0342  2B50               	goto	l2653
  1157                           	line	163
  1158                           ;PR18.c: 162: {
  1159                           ;PR18.c: 163: case 1 : mode1();
  1160                           	
  1161  0343                     l532:	
  1162                           	
  1163  0343                     l2647:	
  1164  0343  120A  118A  255D   	fcall	_mode1
              120A  118A         
  1165                           	line	164
  1166                           ;PR18.c: 164: break;
  1167  0348  2ABA               	goto	l2615
  1168                           	line	166
  1169                           ;PR18.c: 166: case 2 : mode2();
  1170                           	
  1171  0349                     l534:	
  1172                           	
  1173  0349                     l2649:	
  1174  0349  120A  118A  235F   	fcall	_mode2
              120A  118A         
  1175                           	line	167
  1176                           ;PR18.c: 167: break;
  1177  034E  2ABA               	goto	l2615
  1178                           	line	168
  1179                           	
  1180  034F                     l2651:	
  1181                           ;PR18.c: 168: }
  1182  034F  2ABA               	goto	l2615
  1183                           	line	161
  1184                           	
  1185  0350                     l531:	
  1186                           	
  1187  0350                     l2653:	
  1188  0350  1283               	bcf	status, 5	;RP0=0, select bank0
  1189  0351  1303               	bcf	status, 6	;RP1=0, select bank0
  1190  0352  082A               	movf	(_mode),w
  1191                           	; Switch size 1, requested type "space"
  1192                           ; Number of cases is 2, Range of values is 1 to 2
  1193                           ; switch strategies available:
  1194                           ; Name         Bytes Cycles
  1195                           ; simple_byte     7     4 (average)
  1196                           ; direct_byte    28    22 (fixed)
  1197                           ;	Chosen strategy is simple_byte
  1198                           
  1199  0353  3A01               	xorlw	1^0	; case 1
  1200  0354  1903               	skipnz
  1201  0355  2B43               	goto	l2647
  1202  0356  3A03               	xorlw	2^1	; case 2
  1203  0357  1903               	skipnz
  1204  0358  2B49               	goto	l2649
  1205  0359  2ABA               	goto	l2615
  1206                           
  1207                           	line	168
  1208                           	
  1209  035A                     l533:	
  1210  035A  2ABA               	goto	l2615
  1211                           	line	169
  1212                           	
  1213  035B                     l535:	
  1214                           	line	121
  1215  035B  2ABA               	goto	l2615
  1216                           	
  1217  035C                     l536:	
  1218                           	line	170
  1219                           	
  1220  035C                     l537:	
  1221                           	global	start
  1222  035C  120A  118A  2800   	ljmp	start
  1223                           	opt stack 0
  1224                           GLOBAL	__end_of_main
  1225  035F                     	__end_of_main:
  1226 ;; =============== function _main ends ============
  1227                           
  1228                           	signat	_main,88
  1229                           	global	_mode2
  1230                           psect	text263,local,class=CODE,delta=2
  1231                           global __ptext263
  1232  035F                     __ptext263:
  1233                           
  1234 ;; *************** function _mode2 *****************
  1235 ;; Defined at:
  1236 ;;		line 246 in file "C:\Users\Phang\Desktop\9.80\PR 18\PR18.c"
  1237 ;; Parameters:    Size  Location     Type
  1238 ;;		None
  1239 ;; Auto vars:     Size  Location     Type
  1240 ;;  value_temp      2    6[BANK0 ] int 
  1241 ;;  value           2    4[BANK0 ] int 
  1242 ;;  channel         1    8[BANK0 ] unsigned char 
  1243 ;; Return value:  Size  Location     Type
  1244 ;;		None               void
  1245 ;; Registers used:
  1246 ;;		wreg, fsr0l, fsr0h, status,2, status,0, btemp+1, pclath, cstack
  1247 ;; Tracked objects:
  1248 ;;		On entry : 0/0
  1249 ;;		On exit  : 0/0
  1250 ;;		Unchanged: 0/0
  1251 ;; Data sizes:     COMMON   BANK0   BANK1   BANK3   BANK2
  1252 ;;      Params:         0       0       0       0       0
  1253 ;;      Locals:         0       5       0       0       0
  1254 ;;      Temps:          2       0       0       0       0
  1255 ;;      Totals:         2       5       0       0       0
  1256 ;;Total ram usage:        7 bytes
  1257 ;; Hardware stack levels used:    1
  1258 ;; Hardware stack levels required when called:    3
  1259 ;; This function calls:
  1260 ;;		_lcd_clr
  1261 ;;		_lcd_goto
  1262 ;;		_send_string
  1263 ;;		_send_char
  1264 ;;		___awdiv
  1265 ;;		___awmod
  1266 ;;		_delay
  1267 ;;		_send_cmd
  1268 ;; This function is called by:
  1269 ;;		_main
  1270 ;; This function uses a non-reentrant model
  1271 ;;
  1272                           psect	text263
  1273                           	file	"C:\Users\Phang\Desktop\9.80\PR 18\PR18.c"
  1274                           	line	246
  1275                           	global	__size_of_mode2
  1276  01FE                     	__size_of_mode2	equ	__end_of_mode2-_mode2
  1277                           	
  1278  035F                     _mode2:	
  1279                           	opt	stack 4
  1280                           ; Regs used in _mode2: [wreg-fsr0h+status,2+status,0+btemp+1+pclath+cstack]
  1281                           	line	247
  1282                           	
  1283  035F                     l2479:	
  1284                           ;PR18.c: 247: char channel = 1;
  1285  035F  1283               	bcf	status, 5	;RP0=0, select bank0
  1286  0360  1303               	bcf	status, 6	;RP1=0, select bank0
  1287  0361  01A8               	clrf	(mode2@channel)
  1288  0362  1403               	bsf	status,0
  1289  0363  0DA8               	rlf	(mode2@channel),f
  1290  0364  2B65               	goto	l2481
  1291                           	line	250
  1292                           ;PR18.c: 248: int value, value_temp;
  1293                           ;PR18.c: 250: while(1)
  1294                           	
  1295  0365                     l546:	
  1296                           	line	252
  1297                           	
  1298  0365                     l2481:	
  1299                           ;PR18.c: 251: {
  1300                           ;PR18.c: 252: value_temp = 732;
  1301  0365  30DC               	movlw	low(02DCh)
  1302  0366  1283               	bcf	status, 5	;RP0=0, select bank0
  1303  0367  1303               	bcf	status, 6	;RP1=0, select bank0
  1304  0368  00A6               	movwf	(mode2@value_temp)
  1305  0369  3002               	movlw	high(02DCh)
  1306  036A  00A7               	movwf	((mode2@value_temp))+1
  1307                           	line	253
  1308                           	
  1309  036B                     l2483:	
  1310                           ;PR18.c: 253: value = 0;
  1311  036B  3000               	movlw	low(0)
  1312  036C  00A4               	movwf	(mode2@value)
  1313  036D  3000               	movlw	high(0)
  1314  036E  00A5               	movwf	((mode2@value))+1
  1315                           	line	255
  1316                           	
  1317  036F                     l2485:	
  1318                           ;PR18.c: 255: lcd_clr();
  1319  036F  120A  158A  27A9   	fcall	_lcd_clr
              120A  118A         
  1320                           	line	256
  1321                           	
  1322  0374                     l2487:	
  1323                           ;PR18.c: 256: lcd_goto(0);
  1324  0374  3000               	movlw	(0)
  1325  0375  120A  158A  27BD   	fcall	_lcd_goto
              120A  118A         
  1326                           	line	257
  1327                           	
  1328  037A                     l2489:	
  1329                           ;PR18.c: 257: send_string("Channel:");
  1330  037A  302C               	movlw	((STR_7-__stringbase))&0ffh
  1331  037B  120A  118A  207F   	fcall	_send_string
              120A  118A         
  1332                           	line	258
  1333                           	
  1334  0380                     l2491:	
  1335                           ;PR18.c: 258: lcd_goto(20);
  1336  0380  3014               	movlw	(014h)
  1337  0381  120A  158A  27BD   	fcall	_lcd_goto
              120A  118A         
  1338                           	line	259
  1339                           	
  1340  0386                     l2493:	
  1341                           ;PR18.c: 259: send_string("OK");
  1342  0386  3042               	movlw	((STR_8-__stringbase))&0ffh
  1343  0387  120A  118A  207F   	fcall	_send_string
              120A  118A         
  1344                           	line	261
  1345                           ;PR18.c: 261: while(RA2)
  1346  038C  2C08               	goto	l2511
  1347                           	
  1348  038D                     l548:	
  1349                           	line	263
  1350                           ;PR18.c: 262: {
  1351                           ;PR18.c: 263: if(!RA0)
  1352  038D  1805               	btfsc	(40/8),(40)&7
  1353  038E  2B90               	goto	u2691
  1354  038F  2B91               	goto	u2690
  1355  0390                     u2691:
  1356  0390  2B9B               	goto	l549
  1357  0391                     u2690:
  1358                           	line	266
  1359                           	
  1360  0391                     l2495:	
  1361                           ;PR18.c: 264: {
  1362                           ;PR18.c: 266: if(channel > 1)
  1363  0391  3002               	movlw	(02h)
  1364  0392  0228               	subwf	(mode2@channel),w
  1365  0393  1C03               	skipc
  1366  0394  2B96               	goto	u2701
  1367  0395  2B97               	goto	u2700
  1368  0396                     u2701:
  1369  0396  2BAC               	goto	l2503
  1370  0397                     u2700:
  1371                           	line	267
  1372                           	
  1373  0397                     l2497:	
  1374                           ;PR18.c: 267: channel--;
  1375  0397  3001               	movlw	low(01h)
  1376  0398  02A8               	subwf	(mode2@channel),f
  1377  0399  2BAC               	goto	l2503
  1378                           	
  1379  039A                     l550:	
  1380                           	line	268
  1381                           ;PR18.c: 268: }
  1382  039A  2BAC               	goto	l2503
  1383                           	line	269
  1384                           	
  1385  039B                     l549:	
  1386                           ;PR18.c: 269: else if(!RA1)
  1387  039B  1885               	btfsc	(41/8),(41)&7
  1388  039C  2B9E               	goto	u2711
  1389  039D  2B9F               	goto	u2710
  1390  039E                     u2711:
  1391  039E  2BAC               	goto	l2503
  1392  039F                     u2710:
  1393                           	line	272
  1394                           	
  1395  039F                     l2499:	
  1396                           ;PR18.c: 270: {
  1397                           ;PR18.c: 272: if(channel < 32)
  1398  039F  3020               	movlw	(020h)
  1399  03A0  0228               	subwf	(mode2@channel),w
  1400  03A1  1803               	skipnc
  1401  03A2  2BA4               	goto	u2721
  1402  03A3  2BA5               	goto	u2720
  1403  03A4                     u2721:
  1404  03A4  2BAC               	goto	l2503
  1405  03A5                     u2720:
  1406                           	line	273
  1407                           	
  1408  03A5                     l2501:	
  1409                           ;PR18.c: 273: channel++;
  1410  03A5  3001               	movlw	(01h)
  1411  03A6  00FC               	movwf	(??_mode2+0)+0
  1412  03A7  087C               	movf	(??_mode2+0)+0,w
  1413  03A8  07A8               	addwf	(mode2@channel),f
  1414  03A9  2BAC               	goto	l2503
  1415                           	
  1416  03AA                     l553:	
  1417  03AA  2BAC               	goto	l2503
  1418                           	line	274
  1419                           	
  1420  03AB                     l552:	
  1421  03AB  2BAC               	goto	l2503
  1422                           	line	277
  1423                           	
  1424  03AC                     l551:	
  1425                           	
  1426  03AC                     l2503:	
  1427                           ;PR18.c: 274: }
  1428                           ;PR18.c: 277: lcd_goto(9);
  1429  03AC  3009               	movlw	(09h)
  1430  03AD  120A  158A  27BD   	fcall	_lcd_goto
              120A  118A         
  1431                           	line	278
  1432                           	
  1433  03B2                     l2505:	
  1434                           ;PR18.c: 278: if(channel < 10)
  1435  03B2  300A               	movlw	(0Ah)
  1436  03B3  1283               	bcf	status, 5	;RP0=0, select bank0
  1437  03B4  1303               	bcf	status, 6	;RP1=0, select bank0
  1438  03B5  0228               	subwf	(mode2@channel),w
  1439  03B6  1803               	skipnc
  1440  03B7  2BB9               	goto	u2731
  1441  03B8  2BBA               	goto	u2730
  1442  03B9                     u2731:
  1443  03B9  2BC8               	goto	l2509
  1444  03BA                     u2730:
  1445                           	line	281
  1446                           	
  1447  03BA                     l2507:	
  1448                           ;PR18.c: 279: {
  1449                           ;PR18.c: 281: send_char(channel + '0');
  1450  03BA  0828               	movf	(mode2@channel),w
  1451  03BB  3E30               	addlw	030h
  1452  03BC  120A  118A  2059   	fcall	_send_char
              120A  118A         
  1453                           	line	282
  1454                           ;PR18.c: 282: send_char(' ');
  1455  03C1  3020               	movlw	(020h)
  1456  03C2  120A  118A  2059   	fcall	_send_char
              120A  118A         
  1457                           	line	283
  1458                           ;PR18.c: 283: }
  1459  03C7  2BFA               	goto	l555
  1460                           	line	284
  1461                           	
  1462  03C8                     l554:	
  1463                           	line	287
  1464                           	
  1465  03C8                     l2509:	
  1466                           ;PR18.c: 284: else
  1467                           ;PR18.c: 285: {
  1468                           ;PR18.c: 287: send_char(channel/10 + '0');
  1469  03C8  300A               	movlw	low(0Ah)
  1470  03C9  00F7               	movwf	(?___awdiv)
  1471  03CA  3000               	movlw	high(0Ah)
  1472  03CB  00F8               	movwf	((?___awdiv))+1
  1473  03CC  1283               	bcf	status, 5	;RP0=0, select bank0
  1474  03CD  1303               	bcf	status, 6	;RP1=0, select bank0
  1475  03CE  0828               	movf	(mode2@channel),w
  1476  03CF  00FC               	movwf	(??_mode2+0)+0
  1477  03D0  01FD               	clrf	(??_mode2+0)+0+1
  1478  03D1  087C               	movf	0+(??_mode2+0)+0,w
  1479  03D2  00F9               	movwf	0+(?___awdiv)+02h
  1480  03D3  087D               	movf	1+(??_mode2+0)+0,w
  1481  03D4  00FA               	movwf	1+(?___awdiv)+02h
  1482  03D5  120A  118A  2178   	fcall	___awdiv
              120A  118A         
  1483  03DA  0877               	movf	(0+(?___awdiv)),w
  1484  03DB  3E30               	addlw	030h
  1485  03DC  120A  118A  2059   	fcall	_send_char
              120A  118A         
  1486                           	line	288
  1487                           ;PR18.c: 288: send_char(channel%10 + '0');
  1488  03E1  300A               	movlw	low(0Ah)
  1489  03E2  00F0               	movwf	(?___awmod)
  1490  03E3  3000               	movlw	high(0Ah)
  1491  03E4  00F1               	movwf	((?___awmod))+1
  1492  03E5  1283               	bcf	status, 5	;RP0=0, select bank0
  1493  03E6  1303               	bcf	status, 6	;RP1=0, select bank0
  1494  03E7  0828               	movf	(mode2@channel),w
  1495  03E8  00FC               	movwf	(??_mode2+0)+0
  1496  03E9  01FD               	clrf	(??_mode2+0)+0+1
  1497  03EA  087C               	movf	0+(??_mode2+0)+0,w
  1498  03EB  00F2               	movwf	0+(?___awmod)+02h
  1499  03EC  087D               	movf	1+(??_mode2+0)+0,w
  1500  03ED  00F3               	movwf	1+(?___awmod)+02h
  1501  03EE  120A  118A  210E   	fcall	___awmod
              120A  118A         
  1502  03F3  0870               	movf	(0+(?___awmod)),w
  1503  03F4  3E30               	addlw	030h
  1504  03F5  120A  118A  2059   	fcall	_send_char
              120A  118A         
  1505                           	line	289
  1506                           	
  1507  03FA                     l555:	
  1508                           	line	291
  1509                           ;PR18.c: 289: }
  1510                           ;PR18.c: 291: delay(30000);
  1511  03FA  3000               	movlw	0
  1512  03FB  00F3               	movwf	(?_delay+3)
  1513  03FC  3000               	movlw	0
  1514  03FD  00F2               	movwf	(?_delay+2)
  1515  03FE  3075               	movlw	075h
  1516  03FF  00F1               	movwf	(?_delay+1)
  1517  0400  3030               	movlw	030h
  1518  0401  00F0               	movwf	(?_delay)
  1519                           
  1520  0402  120A  118A  20A5   	fcall	_delay
              120A  118A         
  1521  0407  2C08               	goto	l2511
  1522                           	line	293
  1523                           	
  1524  0408                     l547:	
  1525                           	line	261
  1526                           	
  1527  0408                     l2511:	
  1528  0408  1283               	bcf	status, 5	;RP0=0, select bank0
  1529  0409  1303               	bcf	status, 6	;RP1=0, select bank0
  1530  040A  1905               	btfsc	(42/8),(42)&7
  1531  040B  2C0D               	goto	u2741
  1532  040C  2C0E               	goto	u2740
  1533  040D                     u2741:
  1534  040D  2B8D               	goto	l548
  1535  040E                     u2740:
  1536  040E  2C0F               	goto	l2513
  1537                           	
  1538  040F                     l556:	
  1539                           	line	295
  1540                           	
  1541  040F                     l2513:	
  1542                           ;PR18.c: 293: }
  1543                           ;PR18.c: 295: delay(10000);
  1544  040F  3000               	movlw	0
  1545  0410  00F3               	movwf	(?_delay+3)
  1546  0411  3000               	movlw	0
  1547  0412  00F2               	movwf	(?_delay+2)
  1548  0413  3027               	movlw	027h
  1549  0414  00F1               	movwf	(?_delay+1)
  1550  0415  3010               	movlw	010h
  1551  0416  00F0               	movwf	(?_delay)
  1552                           
  1553  0417  120A  118A  20A5   	fcall	_delay
              120A  118A         
  1554                           	line	296
  1555                           ;PR18.c: 296: while(!RA2);
  1556  041C  2C1D               	goto	l557
  1557                           	
  1558  041D                     l558:	
  1559                           	
  1560  041D                     l557:	
  1561  041D  1283               	bcf	status, 5	;RP0=0, select bank0
  1562  041E  1303               	bcf	status, 6	;RP1=0, select bank0
  1563  041F  1D05               	btfss	(42/8),(42)&7
  1564  0420  2C22               	goto	u2751
  1565  0421  2C23               	goto	u2750
  1566  0422                     u2751:
  1567  0422  2C1D               	goto	l557
  1568  0423                     u2750:
  1569  0423  2C24               	goto	l2515
  1570                           	
  1571  0424                     l559:	
  1572                           	line	297
  1573                           	
  1574  0424                     l2515:	
  1575                           ;PR18.c: 297: delay(10000);
  1576  0424  3000               	movlw	0
  1577  0425  00F3               	movwf	(?_delay+3)
  1578  0426  3000               	movlw	0
  1579  0427  00F2               	movwf	(?_delay+2)
  1580  0428  3027               	movlw	027h
  1581  0429  00F1               	movwf	(?_delay+1)
  1582  042A  3010               	movlw	010h
  1583  042B  00F0               	movwf	(?_delay)
  1584                           
  1585  042C  120A  118A  20A5   	fcall	_delay
              120A  118A         
  1586                           	line	299
  1587                           ;PR18.c: 299: lcd_clr();
  1588  0431  120A  158A  27A9   	fcall	_lcd_clr
              120A  118A         
  1589                           	line	300
  1590                           ;PR18.c: 300: lcd_goto(0);
  1591  0436  3000               	movlw	(0)
  1592  0437  120A  158A  27BD   	fcall	_lcd_goto
              120A  118A         
  1593                           	line	301
  1594                           	
  1595  043C                     l2517:	
  1596                           ;PR18.c: 301: send_string("Value: ");
  1597  043C  3035               	movlw	((STR_9-__stringbase))&0ffh
  1598  043D  120A  118A  207F   	fcall	_send_string
              120A  118A         
  1599                           	line	303
  1600                           ;PR18.c: 303: while(RA2)
  1601  0442  2D31               	goto	l2543
  1602                           	
  1603  0443                     l561:	
  1604                           	line	305
  1605                           ;PR18.c: 304: {
  1606                           ;PR18.c: 305: if(!RA0)
  1607  0443  1805               	btfsc	(40/8),(40)&7
  1608  0444  2C46               	goto	u2761
  1609  0445  2C47               	goto	u2760
  1610  0446                     u2761:
  1611  0446  2C5E               	goto	l562
  1612  0447                     u2760:
  1613                           	line	308
  1614                           	
  1615  0447                     l2519:	
  1616                           ;PR18.c: 306: {
  1617                           ;PR18.c: 308: if(value_temp > 0)
  1618  0447  0827               	movf	(mode2@value_temp+1),w
  1619  0448  3A80               	xorlw	80h
  1620  0449  00FF               	movwf	btemp+1
  1621  044A  3080               	movlw	(high(01h))^80h
  1622  044B  027F               	subwf	btemp+1,w
  1623  044C  1D03               	skipz
  1624  044D  2C50               	goto	u2775
  1625  044E  3001               	movlw	low(01h)
  1626  044F  0226               	subwf	(mode2@value_temp),w
  1627  0450                     u2775:
  1628                           
  1629  0450  1C03               	skipc
  1630  0451  2C53               	goto	u2771
  1631  0452  2C54               	goto	u2770
  1632  0453                     u2771:
  1633  0453  2C79               	goto	l564
  1634  0454                     u2770:
  1635                           	line	309
  1636                           	
  1637  0454                     l2521:	
  1638                           ;PR18.c: 309: value_temp--;
  1639  0454  30FF               	movlw	low(-1)
  1640  0455  1283               	bcf	status, 5	;RP0=0, select bank0
  1641  0456  1303               	bcf	status, 6	;RP1=0, select bank0
  1642  0457  07A6               	addwf	(mode2@value_temp),f
  1643  0458  1803               	skipnc
  1644  0459  0AA7               	incf	(mode2@value_temp+1),f
  1645  045A  30FF               	movlw	high(-1)
  1646  045B  07A7               	addwf	(mode2@value_temp+1),f
  1647  045C  2C79               	goto	l564
  1648                           	
  1649  045D                     l563:	
  1650                           	line	310
  1651                           ;PR18.c: 310: }
  1652  045D  2C79               	goto	l564
  1653                           	line	311
  1654                           	
  1655  045E                     l562:	
  1656                           ;PR18.c: 311: else if(!RA1)
  1657  045E  1885               	btfsc	(41/8),(41)&7
  1658  045F  2C61               	goto	u2781
  1659  0460  2C62               	goto	u2780
  1660  0461                     u2781:
  1661  0461  2C79               	goto	l564
  1662  0462                     u2780:
  1663                           	line	314
  1664                           	
  1665  0462                     l2523:	
  1666                           ;PR18.c: 312: {
  1667                           ;PR18.c: 314: if(value_temp < 1454)
  1668  0462  0827               	movf	(mode2@value_temp+1),w
  1669  0463  3A80               	xorlw	80h
  1670  0464  00FF               	movwf	btemp+1
  1671  0465  3085               	movlw	(high(05AEh))^80h
  1672  0466  027F               	subwf	btemp+1,w
  1673  0467  1D03               	skipz
  1674  0468  2C6B               	goto	u2795
  1675  0469  30AE               	movlw	low(05AEh)
  1676  046A  0226               	subwf	(mode2@value_temp),w
  1677  046B                     u2795:
  1678                           
  1679  046B  1803               	skipnc
  1680  046C  2C6E               	goto	u2791
  1681  046D  2C6F               	goto	u2790
  1682  046E                     u2791:
  1683  046E  2C79               	goto	l564
  1684  046F                     u2790:
  1685                           	line	315
  1686                           	
  1687  046F                     l2525:	
  1688                           ;PR18.c: 315: value_temp++;
  1689  046F  3001               	movlw	low(01h)
  1690  0470  1283               	bcf	status, 5	;RP0=0, select bank0
  1691  0471  1303               	bcf	status, 6	;RP1=0, select bank0
  1692  0472  07A6               	addwf	(mode2@value_temp),f
  1693  0473  1803               	skipnc
  1694  0474  0AA7               	incf	(mode2@value_temp+1),f
  1695  0475  3000               	movlw	high(01h)
  1696  0476  07A7               	addwf	(mode2@value_temp+1),f
  1697  0477  2C79               	goto	l564
  1698                           	
  1699  0478                     l566:	
  1700  0478  2C79               	goto	l564
  1701                           	line	316
  1702                           	
  1703  0479                     l565:	
  1704                           	line	318
  1705                           	
  1706  0479                     l564:	
  1707                           ;PR18.c: 316: }
  1708                           ;PR18.c: 318: if(value_temp != value)
  1709  0479  1283               	bcf	status, 5	;RP0=0, select bank0
  1710  047A  1303               	bcf	status, 6	;RP1=0, select bank0
  1711  047B  0825               	movf	(mode2@value+1),w
  1712  047C  0627               	xorwf	(mode2@value_temp+1),w
  1713  047D  1D03               	skipz
  1714  047E  2C81               	goto	u2805
  1715  047F  0824               	movf	(mode2@value),w
  1716  0480  0626               	xorwf	(mode2@value_temp),w
  1717  0481                     u2805:
  1718                           
  1719  0481  1903               	skipnz
  1720  0482  2C84               	goto	u2801
  1721  0483  2C85               	goto	u2800
  1722  0484                     u2801:
  1723  0484  2D23               	goto	l2541
  1724  0485                     u2800:
  1725                           	line	320
  1726                           	
  1727  0485                     l2527:	
  1728                           ;PR18.c: 319: {
  1729                           ;PR18.c: 320: send_cmd(0x40|channel,value_temp,0);
  1730  0485  0827               	movf	(mode2@value_temp+1),w
  1731  0486  01F2               	clrf	(?_send_cmd+1)
  1732  0487  07F2               	addwf	(?_send_cmd+1)
  1733  0488  0826               	movf	(mode2@value_temp),w
  1734  0489  01F1               	clrf	(?_send_cmd)
  1735  048A  07F1               	addwf	(?_send_cmd)
  1736                           
  1737  048B  3000               	movlw	low(0)
  1738  048C  00F3               	movwf	0+(?_send_cmd)+02h
  1739  048D  3000               	movlw	high(0)
  1740  048E  00F4               	movwf	(0+(?_send_cmd)+02h)+1
  1741  048F  0828               	movf	(mode2@channel),w
  1742  0490  3840               	iorlw	040h
  1743  0491  120A  118A  20D5   	fcall	_send_cmd
              120A  118A         
  1744                           	line	321
  1745                           	
  1746  0496                     l2529:	
  1747                           ;PR18.c: 321: value = value_temp;
  1748  0496  1283               	bcf	status, 5	;RP0=0, select bank0
  1749  0497  1303               	bcf	status, 6	;RP1=0, select bank0
  1750  0498  0827               	movf	(mode2@value_temp+1),w
  1751  0499  01A5               	clrf	(mode2@value+1)
  1752  049A  07A5               	addwf	(mode2@value+1)
  1753  049B  0826               	movf	(mode2@value_temp),w
  1754  049C  01A4               	clrf	(mode2@value)
  1755  049D  07A4               	addwf	(mode2@value)
  1756                           
  1757                           	line	324
  1758                           	
  1759  049E                     l2531:	
  1760                           ;PR18.c: 324: lcd_goto(7);
  1761  049E  3007               	movlw	(07h)
  1762  049F  120A  158A  27BD   	fcall	_lcd_goto
              120A  118A         
  1763                           	line	325
  1764                           	
  1765  04A4                     l2533:	
  1766                           ;PR18.c: 325: send_char('0' + (value / 1000));
  1767  04A4  30E8               	movlw	low(03E8h)
  1768  04A5  00F7               	movwf	(?___awdiv)
  1769  04A6  3003               	movlw	high(03E8h)
  1770  04A7  00F8               	movwf	((?___awdiv))+1
  1771  04A8  1283               	bcf	status, 5	;RP0=0, select bank0
  1772  04A9  1303               	bcf	status, 6	;RP1=0, select bank0
  1773  04AA  0825               	movf	(mode2@value+1),w
  1774  04AB  01FA               	clrf	1+(?___awdiv)+02h
  1775  04AC  07FA               	addwf	1+(?___awdiv)+02h
  1776  04AD  0824               	movf	(mode2@value),w
  1777  04AE  01F9               	clrf	0+(?___awdiv)+02h
  1778  04AF  07F9               	addwf	0+(?___awdiv)+02h
  1779                           
  1780  04B0  120A  118A  2178   	fcall	___awdiv
              120A  118A         
  1781  04B5  0877               	movf	(0+(?___awdiv)),w
  1782  04B6  3E30               	addlw	030h
  1783  04B7  120A  118A  2059   	fcall	_send_char
              120A  118A         
  1784                           	line	326
  1785                           	
  1786  04BC                     l2535:	
  1787                           ;PR18.c: 326: send_char('0' + (value % 1000) / 100);
  1788  04BC  3064               	movlw	low(064h)
  1789  04BD  00F7               	movwf	(?___awdiv)
  1790  04BE  3000               	movlw	high(064h)
  1791  04BF  00F8               	movwf	((?___awdiv))+1
  1792  04C0  1283               	bcf	status, 5	;RP0=0, select bank0
  1793  04C1  1303               	bcf	status, 6	;RP1=0, select bank0
  1794  04C2  0825               	movf	(mode2@value+1),w
  1795  04C3  01F3               	clrf	1+(?___awmod)+02h
  1796  04C4  07F3               	addwf	1+(?___awmod)+02h
  1797  04C5  0824               	movf	(mode2@value),w
  1798  04C6  01F2               	clrf	0+(?___awmod)+02h
  1799  04C7  07F2               	addwf	0+(?___awmod)+02h
  1800                           
  1801  04C8  30E8               	movlw	low(03E8h)
  1802  04C9  00F0               	movwf	(?___awmod)
  1803  04CA  3003               	movlw	high(03E8h)
  1804  04CB  00F1               	movwf	((?___awmod))+1
  1805  04CC  120A  118A  210E   	fcall	___awmod
              120A  118A         
  1806  04D1  0871               	movf	(1+(?___awmod)),w
  1807  04D2  01FA               	clrf	1+(?___awdiv)+02h
  1808  04D3  07FA               	addwf	1+(?___awdiv)+02h
  1809  04D4  0870               	movf	(0+(?___awmod)),w
  1810  04D5  01F9               	clrf	0+(?___awdiv)+02h
  1811  04D6  07F9               	addwf	0+(?___awdiv)+02h
  1812                           
  1813  04D7  120A  118A  2178   	fcall	___awdiv
              120A  118A         
  1814  04DC  0877               	movf	(0+(?___awdiv)),w
  1815  04DD  3E30               	addlw	030h
  1816  04DE  120A  118A  2059   	fcall	_send_char
              120A  118A         
  1817                           	line	327
  1818                           	
  1819  04E3                     l2537:	
  1820                           ;PR18.c: 327: send_char('0' + (value % 100) / 10);
  1821  04E3  300A               	movlw	low(0Ah)
  1822  04E4  00F7               	movwf	(?___awdiv)
  1823  04E5  3000               	movlw	high(0Ah)
  1824  04E6  00F8               	movwf	((?___awdiv))+1
  1825  04E7  1283               	bcf	status, 5	;RP0=0, select bank0
  1826  04E8  1303               	bcf	status, 6	;RP1=0, select bank0
  1827  04E9  0825               	movf	(mode2@value+1),w
  1828  04EA  01F3               	clrf	1+(?___awmod)+02h
  1829  04EB  07F3               	addwf	1+(?___awmod)+02h
  1830  04EC  0824               	movf	(mode2@value),w
  1831  04ED  01F2               	clrf	0+(?___awmod)+02h
  1832  04EE  07F2               	addwf	0+(?___awmod)+02h
  1833                           
  1834  04EF  3064               	movlw	low(064h)
  1835  04F0  00F0               	movwf	(?___awmod)
  1836  04F1  3000               	movlw	high(064h)
  1837  04F2  00F1               	movwf	((?___awmod))+1
  1838  04F3  120A  118A  210E   	fcall	___awmod
              120A  118A         
  1839  04F8  0871               	movf	(1+(?___awmod)),w
  1840  04F9  01FA               	clrf	1+(?___awdiv)+02h
  1841  04FA  07FA               	addwf	1+(?___awdiv)+02h
  1842  04FB  0870               	movf	(0+(?___awmod)),w
  1843  04FC  01F9               	clrf	0+(?___awdiv)+02h
  1844  04FD  07F9               	addwf	0+(?___awdiv)+02h
  1845                           
  1846  04FE  120A  118A  2178   	fcall	___awdiv
              120A  118A         
  1847  0503  0877               	movf	(0+(?___awdiv)),w
  1848  0504  3E30               	addlw	030h
  1849  0505  120A  118A  2059   	fcall	_send_char
              120A  118A         
  1850                           	line	328
  1851                           	
  1852  050A                     l2539:	
  1853                           ;PR18.c: 328: send_char('0' + (value % 10));
  1854  050A  300A               	movlw	low(0Ah)
  1855  050B  00F0               	movwf	(?___awmod)
  1856  050C  3000               	movlw	high(0Ah)
  1857  050D  00F1               	movwf	((?___awmod))+1
  1858  050E  1283               	bcf	status, 5	;RP0=0, select bank0
  1859  050F  1303               	bcf	status, 6	;RP1=0, select bank0
  1860  0510  0825               	movf	(mode2@value+1),w
  1861  0511  01F3               	clrf	1+(?___awmod)+02h
  1862  0512  07F3               	addwf	1+(?___awmod)+02h
  1863  0513  0824               	movf	(mode2@value),w
  1864  0514  01F2               	clrf	0+(?___awmod)+02h
  1865  0515  07F2               	addwf	0+(?___awmod)+02h
  1866                           
  1867  0516  120A  118A  210E   	fcall	___awmod
              120A  118A         
  1868  051B  0870               	movf	(0+(?___awmod)),w
  1869  051C  3E30               	addlw	030h
  1870  051D  120A  118A  2059   	fcall	_send_char
              120A  118A         
  1871  0522  2D23               	goto	l2541
  1872                           	line	329
  1873                           	
  1874  0523                     l567:	
  1875                           	line	331
  1876                           	
  1877  0523                     l2541:	
  1878                           ;PR18.c: 329: }
  1879                           ;PR18.c: 331: delay(15000);
  1880  0523  3000               	movlw	0
  1881  0524  00F3               	movwf	(?_delay+3)
  1882  0525  3000               	movlw	0
  1883  0526  00F2               	movwf	(?_delay+2)
  1884  0527  303A               	movlw	03Ah
  1885  0528  00F1               	movwf	(?_delay+1)
  1886  0529  3098               	movlw	098h
  1887  052A  00F0               	movwf	(?_delay)
  1888                           
  1889  052B  120A  118A  20A5   	fcall	_delay
              120A  118A         
  1890  0530  2D31               	goto	l2543
  1891                           	line	333
  1892                           	
  1893  0531                     l560:	
  1894                           	line	303
  1895                           	
  1896  0531                     l2543:	
  1897  0531  1283               	bcf	status, 5	;RP0=0, select bank0
  1898  0532  1303               	bcf	status, 6	;RP1=0, select bank0
  1899  0533  1905               	btfsc	(42/8),(42)&7
  1900  0534  2D36               	goto	u2811
  1901  0535  2D37               	goto	u2810
  1902  0536                     u2811:
  1903  0536  2C43               	goto	l561
  1904  0537                     u2810:
  1905  0537  2D38               	goto	l2545
  1906                           	
  1907  0538                     l568:	
  1908                           	line	335
  1909                           	
  1910  0538                     l2545:	
  1911                           ;PR18.c: 333: }
  1912                           ;PR18.c: 335: delay(10000);
  1913  0538  3000               	movlw	0
  1914  0539  00F3               	movwf	(?_delay+3)
  1915  053A  3000               	movlw	0
  1916  053B  00F2               	movwf	(?_delay+2)
  1917  053C  3027               	movlw	027h
  1918  053D  00F1               	movwf	(?_delay+1)
  1919  053E  3010               	movlw	010h
  1920  053F  00F0               	movwf	(?_delay)
  1921                           
  1922  0540  120A  118A  20A5   	fcall	_delay
              120A  118A         
  1923                           	line	336
  1924                           ;PR18.c: 336: while(!RA2);
  1925  0545  2D46               	goto	l569
  1926                           	
  1927  0546                     l570:	
  1928                           	
  1929  0546                     l569:	
  1930  0546  1283               	bcf	status, 5	;RP0=0, select bank0
  1931  0547  1303               	bcf	status, 6	;RP1=0, select bank0
  1932  0548  1D05               	btfss	(42/8),(42)&7
  1933  0549  2D4B               	goto	u2821
  1934  054A  2D4C               	goto	u2820
  1935  054B                     u2821:
  1936  054B  2D46               	goto	l569
  1937  054C                     u2820:
  1938  054C  2D4D               	goto	l2547
  1939                           	
  1940  054D                     l571:	
  1941                           	line	337
  1942                           	
  1943  054D                     l2547:	
  1944                           ;PR18.c: 337: delay(10000);
  1945  054D  3000               	movlw	0
  1946  054E  00F3               	movwf	(?_delay+3)
  1947  054F  3000               	movlw	0
  1948  0550  00F2               	movwf	(?_delay+2)
  1949  0551  3027               	movlw	027h
  1950  0552  00F1               	movwf	(?_delay+1)
  1951  0553  3010               	movlw	010h
  1952  0554  00F0               	movwf	(?_delay)
  1953                           
  1954  0555  120A  118A  20A5   	fcall	_delay
              120A  118A         
  1955  055A  2B65               	goto	l2481
  1956                           	line	338
  1957                           	
  1958  055B                     l572:	
  1959                           	line	250
  1960  055B  2B65               	goto	l2481
  1961                           	
  1962  055C                     l573:	
  1963                           	line	339
  1964                           	
  1965  055C                     l574:	
  1966  055C  0008               	return
  1967                           	opt stack 0
  1968                           GLOBAL	__end_of_mode2
  1969  055D                     	__end_of_mode2:
  1970 ;; =============== function _mode2 ends ============
  1971                           
  1972                           	signat	_mode2,88
  1973                           	global	_mode1
  1974                           psect	text264,local,class=CODE,delta=2
  1975                           global __ptext264
  1976  055D                     __ptext264:
  1977                           
  1978 ;; *************** function _mode1 *****************
  1979 ;; Defined at:
  1980 ;;		line 175 in file "C:\Users\Phang\Desktop\9.80\PR 18\PR18.c"
  1981 ;; Parameters:    Size  Location     Type
  1982 ;;		None
  1983 ;; Auto vars:     Size  Location     Type
  1984 ;;		None
  1985 ;; Return value:  Size  Location     Type
  1986 ;;		None               void
  1987 ;; Registers used:
  1988 ;;		wreg, fsr0l, fsr0h, status,2, status,0, pclath, cstack
  1989 ;; Tracked objects:
  1990 ;;		On entry : 0/0
  1991 ;;		On exit  : 0/0
  1992 ;;		Unchanged: 0/0
  1993 ;; Data sizes:     COMMON   BANK0   BANK1   BANK3   BANK2
  1994 ;;      Params:         0       0       0       0       0
  1995 ;;      Locals:         0       0       0       0       0
  1996 ;;      Temps:          0       0       0       0       0
  1997 ;;      Totals:         0       0       0       0       0
  1998 ;;Total ram usage:        0 bytes
  1999 ;; Hardware stack levels used:    1
  2000 ;; Hardware stack levels required when called:    3
  2001 ;; This function calls:
  2002 ;;		_lcd_goto
  2003 ;;		_send_char
  2004 ;;		_send_string
  2005 ;;		_delay
  2006 ;;		_send_cmd
  2007 ;; This function is called by:
  2008 ;;		_main
  2009 ;; This function uses a non-reentrant model
  2010 ;;
  2011                           psect	text264
  2012                           	file	"C:\Users\Phang\Desktop\9.80\PR 18\PR18.c"
  2013                           	line	175
  2014                           	global	__size_of_mode1
  2015  02A3                     	__size_of_mode1	equ	__end_of_mode1-_mode1
  2016                           	
  2017  055D                     _mode1:	
  2018                           	opt	stack 4
  2019                           ; Regs used in _mode1: [wreg-fsr0h+status,2+status,0+pclath+cstack]
  2020                           	line	176
  2021                           	
  2022  055D                     l2381:	
  2023                           ;PR18.c: 176: lcd_goto(13);
  2024  055D  300D               	movlw	(0Dh)
  2025  055E  120A  158A  27BD   	fcall	_lcd_goto
              120A  118A         
  2026                           	line	177
  2027                           ;PR18.c: 177: send_char(' ');
  2028  0563  3020               	movlw	(020h)
  2029  0564  120A  118A  2059   	fcall	_send_char
              120A  118A         
  2030                           	line	178
  2031                           ;PR18.c: 178: lcd_goto(20);
  2032  0569  3014               	movlw	(014h)
  2033  056A  120A  158A  27BD   	fcall	_lcd_goto
              120A  118A         
  2034                           	line	179
  2035                           	
  2036  056F                     l2383:	
  2037                           ;PR18.c: 179: send_string("  ");
  2038  056F  300D               	movlw	((STR_6-__stringbase))&0ffh
  2039  0570  120A  118A  207F   	fcall	_send_string
              120A  118A         
  2040                           	line	180
  2041                           	
  2042  0575                     l2385:	
  2043                           ;PR18.c: 180: delay(100000);
  2044  0575  3000               	movlw	0
  2045  0576  00F3               	movwf	(?_delay+3)
  2046  0577  3001               	movlw	01h
  2047  0578  00F2               	movwf	(?_delay+2)
  2048  0579  3086               	movlw	086h
  2049  057A  00F1               	movwf	(?_delay+1)
  2050  057B  30A0               	movlw	0A0h
  2051  057C  00F0               	movwf	(?_delay)
  2052                           
  2053  057D  120A  118A  20A5   	fcall	_delay
              120A  118A         
  2054                           	line	184
  2055                           	
  2056  0582                     l2387:	
  2057                           ;PR18.c: 184: send_cmd(0x4A, 732+300, 30);
  2058  0582  3008               	movlw	low(0408h)
  2059  0583  00F1               	movwf	(?_send_cmd)
  2060  0584  3004               	movlw	high(0408h)
  2061  0585  00F2               	movwf	((?_send_cmd))+1
  2062  0586  301E               	movlw	low(01Eh)
  2063  0587  00F3               	movwf	0+(?_send_cmd)+02h
  2064  0588  3000               	movlw	high(01Eh)
  2065  0589  00F4               	movwf	(0+(?_send_cmd)+02h)+1
  2066  058A  304A               	movlw	(04Ah)
  2067  058B  120A  118A  20D5   	fcall	_send_cmd
              120A  118A         
  2068                           	line	185
  2069                           	
  2070  0590                     l2389:	
  2071                           ;PR18.c: 185: send_cmd(0x47, 732-300, 30);
  2072  0590  30B0               	movlw	low(01B0h)
  2073  0591  00F1               	movwf	(?_send_cmd)
  2074  0592  3001               	movlw	high(01B0h)
  2075  0593  00F2               	movwf	((?_send_cmd))+1
  2076  0594  301E               	movlw	low(01Eh)
  2077  0595  00F3               	movwf	0+(?_send_cmd)+02h
  2078  0596  3000               	movlw	high(01Eh)
  2079  0597  00F4               	movwf	(0+(?_send_cmd)+02h)+1
  2080  0598  3047               	movlw	(047h)
  2081  0599  120A  118A  20D5   	fcall	_send_cmd
              120A  118A         
  2082                           	line	186
  2083                           	
  2084  059E                     l2391:	
  2085                           ;PR18.c: 186: send_cmd(0x4B, 732+300, 30);
  2086  059E  3008               	movlw	low(0408h)
  2087  059F  00F1               	movwf	(?_send_cmd)
  2088  05A0  3004               	movlw	high(0408h)
  2089  05A1  00F2               	movwf	((?_send_cmd))+1
  2090  05A2  301E               	movlw	low(01Eh)
  2091  05A3  00F3               	movwf	0+(?_send_cmd)+02h
  2092  05A4  3000               	movlw	high(01Eh)
  2093  05A5  00F4               	movwf	(0+(?_send_cmd)+02h)+1
  2094  05A6  304B               	movlw	(04Bh)
  2095  05A7  120A  118A  20D5   	fcall	_send_cmd
              120A  118A         
  2096                           	line	187
  2097                           	
  2098  05AC                     l2393:	
  2099                           ;PR18.c: 187: send_cmd(0x48, 732-300, 30);
  2100  05AC  30B0               	movlw	low(01B0h)
  2101  05AD  00F1               	movwf	(?_send_cmd)
  2102  05AE  3001               	movlw	high(01B0h)
  2103  05AF  00F2               	movwf	((?_send_cmd))+1
  2104  05B0  301E               	movlw	low(01Eh)
  2105  05B1  00F3               	movwf	0+(?_send_cmd)+02h
  2106  05B2  3000               	movlw	high(01Eh)
  2107  05B3  00F4               	movwf	(0+(?_send_cmd)+02h)+1
  2108  05B4  3048               	movlw	(048h)
  2109  05B5  120A  118A  20D5   	fcall	_send_cmd
              120A  118A         
  2110                           	line	188
  2111                           	
  2112  05BA                     l2395:	
  2113                           ;PR18.c: 188: delay(200000);
  2114  05BA  3000               	movlw	0
  2115  05BB  00F3               	movwf	(?_delay+3)
  2116  05BC  3003               	movlw	03h
  2117  05BD  00F2               	movwf	(?_delay+2)
  2118  05BE  300D               	movlw	0Dh
  2119  05BF  00F1               	movwf	(?_delay+1)
  2120  05C0  3040               	movlw	040h
  2121  05C1  00F0               	movwf	(?_delay)
  2122                           
  2123  05C2  120A  118A  20A5   	fcall	_delay
              120A  118A         
  2124                           	line	189
  2125                           	
  2126  05C7                     l2397:	
  2127                           ;PR18.c: 189: send_cmd(0x4C, 732-200, 20);
  2128  05C7  3014               	movlw	low(0214h)
  2129  05C8  00F1               	movwf	(?_send_cmd)
  2130  05C9  3002               	movlw	high(0214h)
  2131  05CA  00F2               	movwf	((?_send_cmd))+1
  2132  05CB  3014               	movlw	low(014h)
  2133  05CC  00F3               	movwf	0+(?_send_cmd)+02h
  2134  05CD  3000               	movlw	high(014h)
  2135  05CE  00F4               	movwf	(0+(?_send_cmd)+02h)+1
  2136  05CF  304C               	movlw	(04Ch)
  2137  05D0  120A  118A  20D5   	fcall	_send_cmd
              120A  118A         
  2138                           	line	190
  2139                           	
  2140  05D5                     l2399:	
  2141                           ;PR18.c: 190: send_cmd(0x47, 732, 30);
  2142  05D5  30DC               	movlw	low(02DCh)
  2143  05D6  00F1               	movwf	(?_send_cmd)
  2144  05D7  3002               	movlw	high(02DCh)
  2145  05D8  00F2               	movwf	((?_send_cmd))+1
  2146  05D9  301E               	movlw	low(01Eh)
  2147  05DA  00F3               	movwf	0+(?_send_cmd)+02h
  2148  05DB  3000               	movlw	high(01Eh)
  2149  05DC  00F4               	movwf	(0+(?_send_cmd)+02h)+1
  2150  05DD  3047               	movlw	(047h)
  2151  05DE  120A  118A  20D5   	fcall	_send_cmd
              120A  118A         
  2152                           	line	191
  2153                           	
  2154  05E3                     l2401:	
  2155                           ;PR18.c: 191: send_cmd(0x48, 732, 30);
  2156  05E3  30DC               	movlw	low(02DCh)
  2157  05E4  00F1               	movwf	(?_send_cmd)
  2158  05E5  3002               	movlw	high(02DCh)
  2159  05E6  00F2               	movwf	((?_send_cmd))+1
  2160  05E7  301E               	movlw	low(01Eh)
  2161  05E8  00F3               	movwf	0+(?_send_cmd)+02h
  2162  05E9  3000               	movlw	high(01Eh)
  2163  05EA  00F4               	movwf	(0+(?_send_cmd)+02h)+1
  2164  05EB  3048               	movlw	(048h)
  2165  05EC  120A  118A  20D5   	fcall	_send_cmd
              120A  118A         
  2166                           	line	192
  2167                           	
  2168  05F1                     l2403:	
  2169                           ;PR18.c: 192: send_cmd(0x49, 732-200, 20);
  2170  05F1  3014               	movlw	low(0214h)
  2171  05F2  00F1               	movwf	(?_send_cmd)
  2172  05F3  3002               	movlw	high(0214h)
  2173  05F4  00F2               	movwf	((?_send_cmd))+1
  2174  05F5  3014               	movlw	low(014h)
  2175  05F6  00F3               	movwf	0+(?_send_cmd)+02h
  2176  05F7  3000               	movlw	high(014h)
  2177  05F8  00F4               	movwf	(0+(?_send_cmd)+02h)+1
  2178  05F9  3049               	movlw	(049h)
  2179  05FA  120A  118A  20D5   	fcall	_send_cmd
              120A  118A         
  2180                           	line	193
  2181                           	
  2182  05FF                     l2405:	
  2183                           ;PR18.c: 193: delay(300000);
  2184  05FF  3000               	movlw	0
  2185  0600  00F3               	movwf	(?_delay+3)
  2186  0601  3004               	movlw	04h
  2187  0602  00F2               	movwf	(?_delay+2)
  2188  0603  3093               	movlw	093h
  2189  0604  00F1               	movwf	(?_delay+1)
  2190  0605  30E0               	movlw	0E0h
  2191  0606  00F0               	movwf	(?_delay)
  2192                           
  2193  0607  120A  118A  20A5   	fcall	_delay
              120A  118A         
  2194  060C  2E0D               	goto	l2407
  2195                           	line	195
  2196                           ;PR18.c: 195: while(1)
  2197                           	
  2198  060D                     l540:	
  2199                           	line	198
  2200                           	
  2201  060D                     l2407:	
  2202                           ;PR18.c: 196: {
  2203                           ;PR18.c: 198: send_cmd(0x4C, 732-60, 20);
  2204  060D  30A0               	movlw	low(02A0h)
  2205  060E  00F1               	movwf	(?_send_cmd)
  2206  060F  3002               	movlw	high(02A0h)
  2207  0610  00F2               	movwf	((?_send_cmd))+1
  2208  0611  3014               	movlw	low(014h)
  2209  0612  00F3               	movwf	0+(?_send_cmd)+02h
  2210  0613  3000               	movlw	high(014h)
  2211  0614  00F4               	movwf	(0+(?_send_cmd)+02h)+1
  2212  0615  304C               	movlw	(04Ch)
  2213  0616  120A  118A  20D5   	fcall	_send_cmd
              120A  118A         
  2214                           	line	199
  2215                           	
  2216  061B                     l2409:	
  2217                           ;PR18.c: 199: send_cmd(0x49, 732-60, 20);
  2218  061B  30A0               	movlw	low(02A0h)
  2219  061C  00F1               	movwf	(?_send_cmd)
  2220  061D  3002               	movlw	high(02A0h)
  2221  061E  00F2               	movwf	((?_send_cmd))+1
  2222  061F  3014               	movlw	low(014h)
  2223  0620  00F3               	movwf	0+(?_send_cmd)+02h
  2224  0621  3000               	movlw	high(014h)
  2225  0622  00F4               	movwf	(0+(?_send_cmd)+02h)+1
  2226  0623  3049               	movlw	(049h)
  2227  0624  120A  118A  20D5   	fcall	_send_cmd
              120A  118A         
  2228                           	line	200
  2229                           	
  2230  0629                     l2411:	
  2231                           ;PR18.c: 200: delay(200000);
  2232  0629  3000               	movlw	0
  2233  062A  00F3               	movwf	(?_delay+3)
  2234  062B  3003               	movlw	03h
  2235  062C  00F2               	movwf	(?_delay+2)
  2236  062D  300D               	movlw	0Dh
  2237  062E  00F1               	movwf	(?_delay+1)
  2238  062F  3040               	movlw	040h
  2239  0630  00F0               	movwf	(?_delay)
  2240                           
  2241  0631  120A  118A  20A5   	fcall	_delay
              120A  118A         
  2242                           	line	202
  2243                           	
  2244  0636                     l2413:	
  2245                           ;PR18.c: 202: send_cmd(0x4A, 732-375, 40);
  2246  0636  3065               	movlw	low(0165h)
  2247  0637  00F1               	movwf	(?_send_cmd)
  2248  0638  3001               	movlw	high(0165h)
  2249  0639  00F2               	movwf	((?_send_cmd))+1
  2250  063A  3028               	movlw	low(028h)
  2251  063B  00F3               	movwf	0+(?_send_cmd)+02h
  2252  063C  3000               	movlw	high(028h)
  2253  063D  00F4               	movwf	(0+(?_send_cmd)+02h)+1
  2254  063E  304A               	movlw	(04Ah)
  2255  063F  120A  118A  20D5   	fcall	_send_cmd
              120A  118A         
  2256                           	line	203
  2257                           	
  2258  0644                     l2415:	
  2259                           ;PR18.c: 203: send_cmd(0x4B, 732, 20);
  2260  0644  30DC               	movlw	low(02DCh)
  2261  0645  00F1               	movwf	(?_send_cmd)
  2262  0646  3002               	movlw	high(02DCh)
  2263  0647  00F2               	movwf	((?_send_cmd))+1
  2264  0648  3014               	movlw	low(014h)
  2265  0649  00F3               	movwf	0+(?_send_cmd)+02h
  2266  064A  3000               	movlw	high(014h)
  2267  064B  00F4               	movwf	(0+(?_send_cmd)+02h)+1
  2268  064C  304B               	movlw	(04Bh)
  2269  064D  120A  118A  20D5   	fcall	_send_cmd
              120A  118A         
  2270                           	line	204
  2271                           	
  2272  0652                     l2417:	
  2273                           ;PR18.c: 204: send_cmd(0x47, 732+675, 40);
  2274  0652  307F               	movlw	low(057Fh)
  2275  0653  00F1               	movwf	(?_send_cmd)
  2276  0654  3005               	movlw	high(057Fh)
  2277  0655  00F2               	movwf	((?_send_cmd))+1
  2278  0656  3028               	movlw	low(028h)
  2279  0657  00F3               	movwf	0+(?_send_cmd)+02h
  2280  0658  3000               	movlw	high(028h)
  2281  0659  00F4               	movwf	(0+(?_send_cmd)+02h)+1
  2282  065A  3047               	movlw	(047h)
  2283  065B  120A  118A  20D5   	fcall	_send_cmd
              120A  118A         
  2284                           	line	205
  2285                           	
  2286  0660                     l2419:	
  2287                           ;PR18.c: 205: send_cmd(0x48, 732+300, 15);
  2288  0660  3008               	movlw	low(0408h)
  2289  0661  00F1               	movwf	(?_send_cmd)
  2290  0662  3004               	movlw	high(0408h)
  2291  0663  00F2               	movwf	((?_send_cmd))+1
  2292  0664  300F               	movlw	low(0Fh)
  2293  0665  00F3               	movwf	0+(?_send_cmd)+02h
  2294  0666  3000               	movlw	high(0Fh)
  2295  0667  00F4               	movwf	(0+(?_send_cmd)+02h)+1
  2296  0668  3048               	movlw	(048h)
  2297  0669  120A  118A  20D5   	fcall	_send_cmd
              120A  118A         
  2298                           	line	206
  2299                           	
  2300  066E                     l2421:	
  2301                           ;PR18.c: 206: send_cmd(0x4C, 732+60, 10);
  2302  066E  3018               	movlw	low(0318h)
  2303  066F  00F1               	movwf	(?_send_cmd)
  2304  0670  3003               	movlw	high(0318h)
  2305  0671  00F2               	movwf	((?_send_cmd))+1
  2306  0672  300A               	movlw	low(0Ah)
  2307  0673  00F3               	movwf	0+(?_send_cmd)+02h
  2308  0674  3000               	movlw	high(0Ah)
  2309  0675  00F4               	movwf	(0+(?_send_cmd)+02h)+1
  2310  0676  304C               	movlw	(04Ch)
  2311  0677  120A  118A  20D5   	fcall	_send_cmd
              120A  118A         
  2312                           	line	207
  2313                           	
  2314  067C                     l2423:	
  2315                           ;PR18.c: 207: send_cmd(0x49, 732+60, 10);
  2316  067C  3018               	movlw	low(0318h)
  2317  067D  00F1               	movwf	(?_send_cmd)
  2318  067E  3003               	movlw	high(0318h)
  2319  067F  00F2               	movwf	((?_send_cmd))+1
  2320  0680  300A               	movlw	low(0Ah)
  2321  0681  00F3               	movwf	0+(?_send_cmd)+02h
  2322  0682  3000               	movlw	high(0Ah)
  2323  0683  00F4               	movwf	(0+(?_send_cmd)+02h)+1
  2324  0684  3049               	movlw	(049h)
  2325  0685  120A  118A  20D5   	fcall	_send_cmd
              120A  118A         
  2326                           	line	208
  2327                           	
  2328  068A                     l2425:	
  2329                           ;PR18.c: 208: delay(450000);
  2330  068A  3000               	movlw	0
  2331  068B  00F3               	movwf	(?_delay+3)
  2332  068C  3006               	movlw	06h
  2333  068D  00F2               	movwf	(?_delay+2)
  2334  068E  30DD               	movlw	0DDh
  2335  068F  00F1               	movwf	(?_delay+1)
  2336  0690  30D0               	movlw	0D0h
  2337  0691  00F0               	movwf	(?_delay)
  2338                           
  2339  0692  120A  118A  20A5   	fcall	_delay
              120A  118A         
  2340                           	line	210
  2341                           	
  2342  0697                     l2427:	
  2343                           ;PR18.c: 210: send_cmd(0x4C, 732, 20);
  2344  0697  30DC               	movlw	low(02DCh)
  2345  0698  00F1               	movwf	(?_send_cmd)
  2346  0699  3002               	movlw	high(02DCh)
  2347  069A  00F2               	movwf	((?_send_cmd))+1
  2348  069B  3014               	movlw	low(014h)
  2349  069C  00F3               	movwf	0+(?_send_cmd)+02h
  2350  069D  3000               	movlw	high(014h)
  2351  069E  00F4               	movwf	(0+(?_send_cmd)+02h)+1
  2352  069F  304C               	movlw	(04Ch)
  2353  06A0  120A  118A  20D5   	fcall	_send_cmd
              120A  118A         
  2354                           	line	211
  2355                           	
  2356  06A5                     l2429:	
  2357                           ;PR18.c: 211: send_cmd(0x49, 732+200, 20);
  2358  06A5  30A4               	movlw	low(03A4h)
  2359  06A6  00F1               	movwf	(?_send_cmd)
  2360  06A7  3003               	movlw	high(03A4h)
  2361  06A8  00F2               	movwf	((?_send_cmd))+1
  2362  06A9  3014               	movlw	low(014h)
  2363  06AA  00F3               	movwf	0+(?_send_cmd)+02h
  2364  06AB  3000               	movlw	high(014h)
  2365  06AC  00F4               	movwf	(0+(?_send_cmd)+02h)+1
  2366  06AD  3049               	movlw	(049h)
  2367  06AE  120A  118A  20D5   	fcall	_send_cmd
              120A  118A         
  2368                           	line	212
  2369                           	
  2370  06B3                     l2431:	
  2371                           ;PR18.c: 212: delay(200000);
  2372  06B3  3000               	movlw	0
  2373  06B4  00F3               	movwf	(?_delay+3)
  2374  06B5  3003               	movlw	03h
  2375  06B6  00F2               	movwf	(?_delay+2)
  2376  06B7  300D               	movlw	0Dh
  2377  06B8  00F1               	movwf	(?_delay+1)
  2378  06B9  3040               	movlw	040h
  2379  06BA  00F0               	movwf	(?_delay)
  2380                           
  2381  06BB  120A  118A  20A5   	fcall	_delay
              120A  118A         
  2382                           	line	214
  2383                           	
  2384  06C0                     l2433:	
  2385                           ;PR18.c: 214: send_cmd(0x47, 732-300, 60);
  2386  06C0  30B0               	movlw	low(01B0h)
  2387  06C1  00F1               	movwf	(?_send_cmd)
  2388  06C2  3001               	movlw	high(01B0h)
  2389  06C3  00F2               	movwf	((?_send_cmd))+1
  2390  06C4  303C               	movlw	low(03Ch)
  2391  06C5  00F3               	movwf	0+(?_send_cmd)+02h
  2392  06C6  3000               	movlw	high(03Ch)
  2393  06C7  00F4               	movwf	(0+(?_send_cmd)+02h)+1
  2394  06C8  3047               	movlw	(047h)
  2395  06C9  120A  118A  20D5   	fcall	_send_cmd
              120A  118A         
  2396                           	line	215
  2397                           	
  2398  06CE                     l2435:	
  2399                           ;PR18.c: 215: send_cmd(0x48, 732-300, 30);
  2400  06CE  30B0               	movlw	low(01B0h)
  2401  06CF  00F1               	movwf	(?_send_cmd)
  2402  06D0  3001               	movlw	high(01B0h)
  2403  06D1  00F2               	movwf	((?_send_cmd))+1
  2404  06D2  301E               	movlw	low(01Eh)
  2405  06D3  00F3               	movwf	0+(?_send_cmd)+02h
  2406  06D4  3000               	movlw	high(01Eh)
  2407  06D5  00F4               	movwf	(0+(?_send_cmd)+02h)+1
  2408  06D6  3048               	movlw	(048h)
  2409  06D7  120A  118A  20D5   	fcall	_send_cmd
              120A  118A         
  2410                           	line	216
  2411                           	
  2412  06DC                     l2437:	
  2413                           ;PR18.c: 216: send_cmd(0x4A, 732, 30);
  2414  06DC  30DC               	movlw	low(02DCh)
  2415  06DD  00F1               	movwf	(?_send_cmd)
  2416  06DE  3002               	movlw	high(02DCh)
  2417  06DF  00F2               	movwf	((?_send_cmd))+1
  2418  06E0  301E               	movlw	low(01Eh)
  2419  06E1  00F3               	movwf	0+(?_send_cmd)+02h
  2420  06E2  3000               	movlw	high(01Eh)
  2421  06E3  00F4               	movwf	(0+(?_send_cmd)+02h)+1
  2422  06E4  304A               	movlw	(04Ah)
  2423  06E5  120A  118A  20D5   	fcall	_send_cmd
              120A  118A         
  2424                           	line	217
  2425                           	
  2426  06EA                     l2439:	
  2427                           ;PR18.c: 217: send_cmd(0x4C, 732+200, 30);
  2428  06EA  30A4               	movlw	low(03A4h)
  2429  06EB  00F1               	movwf	(?_send_cmd)
  2430  06EC  3003               	movlw	high(03A4h)
  2431  06ED  00F2               	movwf	((?_send_cmd))+1
  2432  06EE  301E               	movlw	low(01Eh)
  2433  06EF  00F3               	movwf	0+(?_send_cmd)+02h
  2434  06F0  3000               	movlw	high(01Eh)
  2435  06F1  00F4               	movwf	(0+(?_send_cmd)+02h)+1
  2436  06F2  304C               	movlw	(04Ch)
  2437  06F3  120A  118A  20D5   	fcall	_send_cmd
              120A  118A         
  2438                           	line	218
  2439                           	
  2440  06F8                     l2441:	
  2441                           ;PR18.c: 218: delay(300000);
  2442  06F8  3000               	movlw	0
  2443  06F9  00F3               	movwf	(?_delay+3)
  2444  06FA  3004               	movlw	04h
  2445  06FB  00F2               	movwf	(?_delay+2)
  2446  06FC  3093               	movlw	093h
  2447  06FD  00F1               	movwf	(?_delay+1)
  2448  06FE  30E0               	movlw	0E0h
  2449  06FF  00F0               	movwf	(?_delay)
  2450                           
  2451  0700  120A  118A  20A5   	fcall	_delay
              120A  118A         
  2452                           	line	221
  2453                           	
  2454  0705                     l2443:	
  2455                           ;PR18.c: 221: send_cmd(0x49, 732+60, 20);
  2456  0705  3018               	movlw	low(0318h)
  2457  0706  00F1               	movwf	(?_send_cmd)
  2458  0707  3003               	movlw	high(0318h)
  2459  0708  00F2               	movwf	((?_send_cmd))+1
  2460  0709  3014               	movlw	low(014h)
  2461  070A  00F3               	movwf	0+(?_send_cmd)+02h
  2462  070B  3000               	movlw	high(014h)
  2463  070C  00F4               	movwf	(0+(?_send_cmd)+02h)+1
  2464  070D  3049               	movlw	(049h)
  2465  070E  120A  118A  20D5   	fcall	_send_cmd
              120A  118A         
  2466                           	line	222
  2467                           	
  2468  0713                     l2445:	
  2469                           ;PR18.c: 222: send_cmd(0x4C, 732+60, 20);
  2470  0713  3018               	movlw	low(0318h)
  2471  0714  00F1               	movwf	(?_send_cmd)
  2472  0715  3003               	movlw	high(0318h)
  2473  0716  00F2               	movwf	((?_send_cmd))+1
  2474  0717  3014               	movlw	low(014h)
  2475  0718  00F3               	movwf	0+(?_send_cmd)+02h
  2476  0719  3000               	movlw	high(014h)
  2477  071A  00F4               	movwf	(0+(?_send_cmd)+02h)+1
  2478  071B  304C               	movlw	(04Ch)
  2479  071C  120A  118A  20D5   	fcall	_send_cmd
              120A  118A         
  2480                           	line	223
  2481                           	
  2482  0721                     l2447:	
  2483                           ;PR18.c: 223: delay(200000);
  2484  0721  3000               	movlw	0
  2485  0722  00F3               	movwf	(?_delay+3)
  2486  0723  3003               	movlw	03h
  2487  0724  00F2               	movwf	(?_delay+2)
  2488  0725  300D               	movlw	0Dh
  2489  0726  00F1               	movwf	(?_delay+1)
  2490  0727  3040               	movlw	040h
  2491  0728  00F0               	movwf	(?_delay)
  2492                           
  2493  0729  120A  118A  20A5   	fcall	_delay
              120A  118A         
  2494                           	line	225
  2495                           	
  2496  072E                     l2449:	
  2497                           ;PR18.c: 225: send_cmd(0x47, 732+375, 40);
  2498  072E  3053               	movlw	low(0453h)
  2499  072F  00F1               	movwf	(?_send_cmd)
  2500  0730  3004               	movlw	high(0453h)
  2501  0731  00F2               	movwf	((?_send_cmd))+1
  2502  0732  3028               	movlw	low(028h)
  2503  0733  00F3               	movwf	0+(?_send_cmd)+02h
  2504  0734  3000               	movlw	high(028h)
  2505  0735  00F4               	movwf	(0+(?_send_cmd)+02h)+1
  2506  0736  3047               	movlw	(047h)
  2507  0737  120A  118A  20D5   	fcall	_send_cmd
              120A  118A         
  2508                           	line	226
  2509                           	
  2510  073C                     l2451:	
  2511                           ;PR18.c: 226: send_cmd(0x48, 732, 20);
  2512  073C  30DC               	movlw	low(02DCh)
  2513  073D  00F1               	movwf	(?_send_cmd)
  2514  073E  3002               	movlw	high(02DCh)
  2515  073F  00F2               	movwf	((?_send_cmd))+1
  2516  0740  3014               	movlw	low(014h)
  2517  0741  00F3               	movwf	0+(?_send_cmd)+02h
  2518  0742  3000               	movlw	high(014h)
  2519  0743  00F4               	movwf	(0+(?_send_cmd)+02h)+1
  2520  0744  3048               	movlw	(048h)
  2521  0745  120A  118A  20D5   	fcall	_send_cmd
              120A  118A         
  2522                           	line	227
  2523                           	
  2524  074A                     l2453:	
  2525                           ;PR18.c: 227: send_cmd(0x4A, 732-675, 40);
  2526  074A  3039               	movlw	low(039h)
  2527  074B  00F1               	movwf	(?_send_cmd)
  2528  074C  3000               	movlw	high(039h)
  2529  074D  00F2               	movwf	((?_send_cmd))+1
  2530  074E  3028               	movlw	low(028h)
  2531  074F  00F3               	movwf	0+(?_send_cmd)+02h
  2532  0750  3000               	movlw	high(028h)
  2533  0751  00F4               	movwf	(0+(?_send_cmd)+02h)+1
  2534  0752  304A               	movlw	(04Ah)
  2535  0753  120A  118A  20D5   	fcall	_send_cmd
              120A  118A         
  2536                           	line	228
  2537                           	
  2538  0758                     l2455:	
  2539                           ;PR18.c: 228: send_cmd(0x4B, 732-300, 15);
  2540  0758  30B0               	movlw	low(01B0h)
  2541  0759  00F1               	movwf	(?_send_cmd)
  2542  075A  3001               	movlw	high(01B0h)
  2543  075B  00F2               	movwf	((?_send_cmd))+1
  2544  075C  300F               	movlw	low(0Fh)
  2545  075D  00F3               	movwf	0+(?_send_cmd)+02h
  2546  075E  3000               	movlw	high(0Fh)
  2547  075F  00F4               	movwf	(0+(?_send_cmd)+02h)+1
  2548  0760  304B               	movlw	(04Bh)
  2549  0761  120A  118A  20D5   	fcall	_send_cmd
              120A  118A         
  2550                           	line	229
  2551                           	
  2552  0766                     l2457:	
  2553                           ;PR18.c: 229: send_cmd(0x49, 732-60, 10);
  2554  0766  30A0               	movlw	low(02A0h)
  2555  0767  00F1               	movwf	(?_send_cmd)
  2556  0768  3002               	movlw	high(02A0h)
  2557  0769  00F2               	movwf	((?_send_cmd))+1
  2558  076A  300A               	movlw	low(0Ah)
  2559  076B  00F3               	movwf	0+(?_send_cmd)+02h
  2560  076C  3000               	movlw	high(0Ah)
  2561  076D  00F4               	movwf	(0+(?_send_cmd)+02h)+1
  2562  076E  3049               	movlw	(049h)
  2563  076F  120A  118A  20D5   	fcall	_send_cmd
              120A  118A         
  2564                           	line	230
  2565                           	
  2566  0774                     l2459:	
  2567                           ;PR18.c: 230: send_cmd(0x4C, 732-60, 10);
  2568  0774  30A0               	movlw	low(02A0h)
  2569  0775  00F1               	movwf	(?_send_cmd)
  2570  0776  3002               	movlw	high(02A0h)
  2571  0777  00F2               	movwf	((?_send_cmd))+1
  2572  0778  300A               	movlw	low(0Ah)
  2573  0779  00F3               	movwf	0+(?_send_cmd)+02h
  2574  077A  3000               	movlw	high(0Ah)
  2575  077B  00F4               	movwf	(0+(?_send_cmd)+02h)+1
  2576  077C  304C               	movlw	(04Ch)
  2577  077D  120A  118A  20D5   	fcall	_send_cmd
              120A  118A         
  2578                           	line	231
  2579                           	
  2580  0782                     l2461:	
  2581                           ;PR18.c: 231: delay(450000);
  2582  0782  3000               	movlw	0
  2583  0783  00F3               	movwf	(?_delay+3)
  2584  0784  3006               	movlw	06h
  2585  0785  00F2               	movwf	(?_delay+2)
  2586  0786  30DD               	movlw	0DDh
  2587  0787  00F1               	movwf	(?_delay+1)
  2588  0788  30D0               	movlw	0D0h
  2589  0789  00F0               	movwf	(?_delay)
  2590                           
  2591  078A  120A  118A  20A5   	fcall	_delay
              120A  118A         
  2592                           	line	233
  2593                           	
  2594  078F                     l2463:	
  2595                           ;PR18.c: 233: send_cmd(0x49, 732, 20);
  2596  078F  30DC               	movlw	low(02DCh)
  2597  0790  00F1               	movwf	(?_send_cmd)
  2598  0791  3002               	movlw	high(02DCh)
  2599  0792  00F2               	movwf	((?_send_cmd))+1
  2600  0793  3014               	movlw	low(014h)
  2601  0794  00F3               	movwf	0+(?_send_cmd)+02h
  2602  0795  3000               	movlw	high(014h)
  2603  0796  00F4               	movwf	(0+(?_send_cmd)+02h)+1
  2604  0797  3049               	movlw	(049h)
  2605  0798  120A  118A  20D5   	fcall	_send_cmd
              120A  118A         
  2606                           	line	234
  2607                           	
  2608  079D                     l2465:	
  2609                           ;PR18.c: 234: send_cmd(0x4C, 732-200, 20);
  2610  079D  3014               	movlw	low(0214h)
  2611  079E  00F1               	movwf	(?_send_cmd)
  2612  079F  3002               	movlw	high(0214h)
  2613  07A0  00F2               	movwf	((?_send_cmd))+1
  2614  07A1  3014               	movlw	low(014h)
  2615  07A2  00F3               	movwf	0+(?_send_cmd)+02h
  2616  07A3  3000               	movlw	high(014h)
  2617  07A4  00F4               	movwf	(0+(?_send_cmd)+02h)+1
  2618  07A5  304C               	movlw	(04Ch)
  2619  07A6  120A  118A  20D5   	fcall	_send_cmd
              120A  118A         
  2620                           	line	235
  2621                           	
  2622  07AB                     l2467:	
  2623                           ;PR18.c: 235: delay(200000);
  2624  07AB  3000               	movlw	0
  2625  07AC  00F3               	movwf	(?_delay+3)
  2626  07AD  3003               	movlw	03h
  2627  07AE  00F2               	movwf	(?_delay+2)
  2628  07AF  300D               	movlw	0Dh
  2629  07B0  00F1               	movwf	(?_delay+1)
  2630  07B1  3040               	movlw	040h
  2631  07B2  00F0               	movwf	(?_delay)
  2632                           
  2633  07B3  120A  118A  20A5   	fcall	_delay
              120A  118A         
  2634                           	line	237
  2635                           	
  2636  07B8                     l2469:	
  2637                           ;PR18.c: 237: send_cmd(0x4A, 732+300, 60);
  2638  07B8  3008               	movlw	low(0408h)
  2639  07B9  00F1               	movwf	(?_send_cmd)
  2640  07BA  3004               	movlw	high(0408h)
  2641  07BB  00F2               	movwf	((?_send_cmd))+1
  2642  07BC  303C               	movlw	low(03Ch)
  2643  07BD  00F3               	movwf	0+(?_send_cmd)+02h
  2644  07BE  3000               	movlw	high(03Ch)
  2645  07BF  00F4               	movwf	(0+(?_send_cmd)+02h)+1
  2646  07C0  304A               	movlw	(04Ah)
  2647  07C1  120A  118A  20D5   	fcall	_send_cmd
              120A  118A         
  2648                           	line	238
  2649                           	
  2650  07C6                     l2471:	
  2651                           ;PR18.c: 238: send_cmd(0x4B, 732+300, 30);
  2652  07C6  3008               	movlw	low(0408h)
  2653  07C7  00F1               	movwf	(?_send_cmd)
  2654  07C8  3004               	movlw	high(0408h)
  2655  07C9  00F2               	movwf	((?_send_cmd))+1
  2656  07CA  301E               	movlw	low(01Eh)
  2657  07CB  00F3               	movwf	0+(?_send_cmd)+02h
  2658  07CC  3000               	movlw	high(01Eh)
  2659  07CD  00F4               	movwf	(0+(?_send_cmd)+02h)+1
  2660  07CE  304B               	movlw	(04Bh)
  2661  07CF  120A  118A  20D5   	fcall	_send_cmd
              120A  118A         
  2662                           	line	239
  2663                           	
  2664  07D4                     l2473:	
  2665                           ;PR18.c: 239: send_cmd(0x47, 732, 30);
  2666  07D4  30DC               	movlw	low(02DCh)
  2667  07D5  00F1               	movwf	(?_send_cmd)
  2668  07D6  3002               	movlw	high(02DCh)
  2669  07D7  00F2               	movwf	((?_send_cmd))+1
  2670  07D8  301E               	movlw	low(01Eh)
  2671  07D9  00F3               	movwf	0+(?_send_cmd)+02h
  2672  07DA  3000               	movlw	high(01Eh)
  2673  07DB  00F4               	movwf	(0+(?_send_cmd)+02h)+1
  2674  07DC  3047               	movlw	(047h)
  2675  07DD  120A  118A  20D5   	fcall	_send_cmd
              120A  118A         
  2676                           	line	240
  2677                           	
  2678  07E2                     l2475:	
  2679                           ;PR18.c: 240: send_cmd(0x49, 732-200, 30);
  2680  07E2  3014               	movlw	low(0214h)
  2681  07E3  00F1               	movwf	(?_send_cmd)
  2682  07E4  3002               	movlw	high(0214h)
  2683  07E5  00F2               	movwf	((?_send_cmd))+1
  2684  07E6  301E               	movlw	low(01Eh)
  2685  07E7  00F3               	movwf	0+(?_send_cmd)+02h
  2686  07E8  3000               	movlw	high(01Eh)
  2687  07E9  00F4               	movwf	(0+(?_send_cmd)+02h)+1
  2688  07EA  3049               	movlw	(049h)
  2689  07EB  120A  118A  20D5   	fcall	_send_cmd
              120A  118A         
  2690                           	line	241
  2691                           	
  2692  07F0                     l2477:	
  2693                           ;PR18.c: 241: delay(300000);
  2694  07F0  3000               	movlw	0
  2695  07F1  00F3               	movwf	(?_delay+3)
  2696  07F2  3004               	movlw	04h
  2697  07F3  00F2               	movwf	(?_delay+2)
  2698  07F4  3093               	movlw	093h
  2699  07F5  00F1               	movwf	(?_delay+1)
  2700  07F6  30E0               	movlw	0E0h
  2701  07F7  00F0               	movwf	(?_delay)
  2702                           
  2703  07F8  120A  118A  20A5   	fcall	_delay
              120A  118A         
  2704  07FD  2E0D               	goto	l2407
  2705                           	line	242
  2706                           	
  2707  07FE                     l541:	
  2708                           	line	195
  2709  07FE  2E0D               	goto	l2407
  2710                           	
  2711  07FF                     l542:	
  2712                           	line	243
  2713                           	
  2714  07FF                     l543:	
  2715  07FF  0008               	return
  2716                           	opt stack 0
  2717                           GLOBAL	__end_of_mode1
  2718  0800                     	__end_of_mode1:
  2719 ;; =============== function _mode1 ends ============
  2720                           
  2721                           	signat	_mode1,88
  2722                           	global	_send_string
  2723                           psect	text265,local,class=CODE,delta=2
  2724                           global __ptext265
  2725  007F                     __ptext265:
  2726                           
  2727 ;; *************** function _send_string *****************
  2728 ;; Defined at:
  2729 ;;		line 388 in file "C:\Users\Phang\Desktop\9.80\PR 18\PR18.c"
  2730 ;; Parameters:    Size  Location     Type
  2731 ;;  s               1    wreg     PTR const unsigned char 
  2732 ;;		 -> STR_9(8), STR_8(3), STR_7(9), STR_6(3), 
  2733 ;;		 -> STR_5(15), STR_4(15), STR_3(3), STR_2(5), 
  2734 ;;		 -> STR_1(13), 
  2735 ;; Auto vars:     Size  Location     Type
  2736 ;;  s               1   10[COMMON] PTR const unsigned char 
  2737 ;;		 -> STR_9(8), STR_8(3), STR_7(9), STR_6(3), 
  2738 ;;		 -> STR_5(15), STR_4(15), STR_3(3), STR_2(5), 
  2739 ;;		 -> STR_1(13), 
  2740 ;; Return value:  Size  Location     Type
  2741 ;;		None               void
  2742 ;; Registers used:
  2743 ;;		wreg, fsr0l, fsr0h, status,2, status,0, pclath, cstack
  2744 ;; Tracked objects:
  2745 ;;		On entry : 0/0
  2746 ;;		On exit  : 0/0
  2747 ;;		Unchanged: 0/0
  2748 ;; Data sizes:     COMMON   BANK0   BANK1   BANK3   BANK2
  2749 ;;      Params:         0       0       0       0       0
  2750 ;;      Locals:         1       0       0       0       0
  2751 ;;      Temps:          1       0       0       0       0
  2752 ;;      Totals:         2       0       0       0       0
  2753 ;;Total ram usage:        2 bytes
  2754 ;; Hardware stack levels used:    1
  2755 ;; Hardware stack levels required when called:    2
  2756 ;; This function calls:
  2757 ;;		_send_char
  2758 ;; This function is called by:
  2759 ;;		_main
  2760 ;;		_mode1
  2761 ;;		_mode2
  2762 ;; This function uses a non-reentrant model
  2763 ;;
  2764                           psect	text265
  2765                           	file	"C:\Users\Phang\Desktop\9.80\PR 18\PR18.c"
  2766                           	line	388
  2767                           	global	__size_of_send_string
  2768  0026                     	__size_of_send_string	equ	__end_of_send_string-_send_string
  2769                           	
  2770  007F                     _send_string:	
  2771                           	opt	stack 4
  2772                           ; Regs used in _send_string: [wreg-fsr0h+status,2+status,0+pclath+cstack]
  2773                           ;send_string@s stored from wreg
  2774  007F  00FA               	movwf	(send_string@s)
  2775                           	line	389
  2776                           	
  2777  0080                     l2371:	
  2778                           ;PR18.c: 389: while (s && *s)send_char (*s++);
  2779  0080  2892               	goto	l2377
  2780                           	
  2781  0081                     l597:	
  2782                           	
  2783  0081                     l2373:	
  2784  0081  087A               	movf	(send_string@s),w
  2785  0082  0084               	movwf	fsr0
  2786  0083  120A  118A  2003   	fcall	stringdir
              120A  118A         
  2787  0088  120A  118A  2059   	fcall	_send_char
              120A  118A         
  2788                           	
  2789  008D                     l2375:	
  2790  008D  3001               	movlw	(01h)
  2791  008E  00F9               	movwf	(??_send_string+0)+0
  2792  008F  0879               	movf	(??_send_string+0)+0,w
  2793  0090  07FA               	addwf	(send_string@s),f
  2794  0091  2892               	goto	l2377
  2795                           	
  2796  0092                     l596:	
  2797                           	
  2798  0092                     l2377:	
  2799  0092  087A               	movf	(send_string@s),w
  2800  0093  1D03               	skipz
  2801  0094  2896               	goto	u2670
  2802  0095  28A4               	goto	l601
  2803  0096                     u2670:
  2804                           	
  2805  0096                     l2379:	
  2806  0096  087A               	movf	(send_string@s),w
  2807  0097  0084               	movwf	fsr0
  2808  0098  120A  118A  2003   	fcall	stringdir
              120A  118A         
  2809  009D  3800               	iorlw	0
  2810  009E  1D03               	skipz
  2811  009F  28A1               	goto	u2681
  2812  00A0  28A2               	goto	u2680
  2813  00A1                     u2681:
  2814  00A1  2881               	goto	l2373
  2815  00A2                     u2680:
  2816  00A2  28A4               	goto	l601
  2817                           	
  2818  00A3                     l599:	
  2819  00A3  28A4               	goto	l601
  2820                           	
  2821  00A4                     l600:	
  2822                           	line	390
  2823                           	
  2824  00A4                     l601:	
  2825  00A4  0008               	return
  2826                           	opt stack 0
  2827                           GLOBAL	__end_of_send_string
  2828  00A5                     	__end_of_send_string:
  2829 ;; =============== function _send_string ends ============
  2830                           
  2831                           	signat	_send_string,4216
  2832                           	global	_lcd_goto
  2833                           psect	text266,local,class=CODE,delta=2
  2834                           global __ptext266
  2835  0FBD                     __ptext266:
  2836                           
  2837 ;; *************** function _lcd_goto *****************
  2838 ;; Defined at:
  2839 ;;		line 369 in file "C:\Users\Phang\Desktop\9.80\PR 18\PR18.c"
  2840 ;; Parameters:    Size  Location     Type
  2841 ;;  data            1    wreg     unsigned char 
  2842 ;; Auto vars:     Size  Location     Type
  2843 ;;  data            1   10[COMMON] unsigned char 
  2844 ;; Return value:  Size  Location     Type
  2845 ;;		None               void
  2846 ;; Registers used:
  2847 ;;		wreg, status,2, status,0, pclath, cstack
  2848 ;; Tracked objects:
  2849 ;;		On entry : 0/0
  2850 ;;		On exit  : 0/0
  2851 ;;		Unchanged: 0/0
  2852 ;; Data sizes:     COMMON   BANK0   BANK1   BANK3   BANK2
  2853 ;;      Params:         0       0       0       0       0
  2854 ;;      Locals:         1       0       0       0       0
  2855 ;;      Temps:          1       0       0       0       0
  2856 ;;      Totals:         2       0       0       0       0
  2857 ;;Total ram usage:        2 bytes
  2858 ;; Hardware stack levels used:    1
  2859 ;; Hardware stack levels required when called:    2
  2860 ;; This function calls:
  2861 ;;		_send_config
  2862 ;; This function is called by:
  2863 ;;		_main
  2864 ;;		_mode1
  2865 ;;		_mode2
  2866 ;; This function uses a non-reentrant model
  2867 ;;
  2868                           psect	text266
  2869                           	file	"C:\Users\Phang\Desktop\9.80\PR 18\PR18.c"
  2870                           	line	369
  2871                           	global	__size_of_lcd_goto
  2872  001D                     	__size_of_lcd_goto	equ	__end_of_lcd_goto-_lcd_goto
  2873                           	
  2874  0FBD                     _lcd_goto:	
  2875                           	opt	stack 4
  2876                           ; Regs used in _lcd_goto: [wreg+status,2+status,0+pclath+cstack]
  2877                           ;lcd_goto@data stored from wreg
  2878  0FBD  00FA               	movwf	(lcd_goto@data)
  2879                           	line	370
  2880                           	
  2881  0FBE                     l2363:	
  2882                           ;PR18.c: 370: if(data<16)
  2883  0FBE  3010               	movlw	(010h)
  2884  0FBF  027A               	subwf	(lcd_goto@data),w
  2885  0FC0  1803               	skipnc
  2886  0FC1  2FC3               	goto	u2661
  2887  0FC2  2FC4               	goto	u2660
  2888  0FC3                     u2661:
  2889  0FC3  2FCC               	goto	l2367
  2890  0FC4                     u2660:
  2891                           	line	372
  2892                           	
  2893  0FC4                     l2365:	
  2894                           ;PR18.c: 371: {
  2895                           ;PR18.c: 372: send_config(0x80+data);
  2896  0FC4  087A               	movf	(lcd_goto@data),w
  2897  0FC5  3E80               	addlw	080h
  2898  0FC6  120A  158A  27DA   	fcall	_send_config
              120A  158A         
  2899                           	line	373
  2900                           ;PR18.c: 373: }
  2901  0FCB  2FD9               	goto	l590
  2902                           	line	374
  2903                           	
  2904  0FCC                     l588:	
  2905                           	line	376
  2906                           	
  2907  0FCC                     l2367:	
  2908                           ;PR18.c: 374: else
  2909                           ;PR18.c: 375: {
  2910                           ;PR18.c: 376: data=data-20;
  2911  0FCC  087A               	movf	(lcd_goto@data),w
  2912  0FCD  3EEC               	addlw	0ECh
  2913  0FCE  00F9               	movwf	(??_lcd_goto+0)+0
  2914  0FCF  0879               	movf	(??_lcd_goto+0)+0,w
  2915  0FD0  00FA               	movwf	(lcd_goto@data)
  2916                           	line	377
  2917                           	
  2918  0FD1                     l2369:	
  2919                           ;PR18.c: 377: send_config(0xc0+data);
  2920  0FD1  087A               	movf	(lcd_goto@data),w
  2921  0FD2  3EC0               	addlw	0C0h
  2922  0FD3  120A  158A  27DA   	fcall	_send_config
              120A  158A         
  2923  0FD8  2FD9               	goto	l590
  2924                           	line	378
  2925                           	
  2926  0FD9                     l589:	
  2927                           	line	379
  2928                           	
  2929  0FD9                     l590:	
  2930  0FD9  0008               	return
  2931                           	opt stack 0
  2932                           GLOBAL	__end_of_lcd_goto
  2933  0FDA                     	__end_of_lcd_goto:
  2934 ;; =============== function _lcd_goto ends ============
  2935                           
  2936                           	signat	_lcd_goto,4216
  2937                           	global	_lcd_clr
  2938                           psect	text267,local,class=CODE,delta=2
  2939                           global __ptext267
  2940  0FA9                     __ptext267:
  2941                           
  2942 ;; *************** function _lcd_clr *****************
  2943 ;; Defined at:
  2944 ;;		line 382 in file "C:\Users\Phang\Desktop\9.80\PR 18\PR18.c"
  2945 ;; Parameters:    Size  Location     Type
  2946 ;;		None
  2947 ;; Auto vars:     Size  Location     Type
  2948 ;;		None
  2949 ;; Return value:  Size  Location     Type
  2950 ;;		None               void
  2951 ;; Registers used:
  2952 ;;		wreg, status,2, status,0, pclath, cstack
  2953 ;; Tracked objects:
  2954 ;;		On entry : 0/0
  2955 ;;		On exit  : 0/0
  2956 ;;		Unchanged: 0/0
  2957 ;; Data sizes:     COMMON   BANK0   BANK1   BANK3   BANK2
  2958 ;;      Params:         0       0       0       0       0
  2959 ;;      Locals:         0       0       0       0       0
  2960 ;;      Temps:          0       0       0       0       0
  2961 ;;      Totals:         0       0       0       0       0
  2962 ;;Total ram usage:        0 bytes
  2963 ;; Hardware stack levels used:    1
  2964 ;; Hardware stack levels required when called:    2
  2965 ;; This function calls:
  2966 ;;		_send_config
  2967 ;;		_delay
  2968 ;; This function is called by:
  2969 ;;		_main
  2970 ;;		_mode2
  2971 ;; This function uses a non-reentrant model
  2972 ;;
  2973                           psect	text267
  2974                           	file	"C:\Users\Phang\Desktop\9.80\PR 18\PR18.c"
  2975                           	line	382
  2976                           	global	__size_of_lcd_clr
  2977  0014                     	__size_of_lcd_clr	equ	__end_of_lcd_clr-_lcd_clr
  2978                           	
  2979  0FA9                     _lcd_clr:	
  2980                           	opt	stack 4
  2981                           ; Regs used in _lcd_clr: [wreg+status,2+status,0+pclath+cstack]
  2982                           	line	383
  2983                           	
  2984  0FA9                     l2361:	
  2985                           ;PR18.c: 383: send_config(0x01);
  2986  0FA9  3001               	movlw	(01h)
  2987  0FAA  120A  158A  27DA   	fcall	_send_config
              120A  158A         
  2988                           	line	384
  2989                           ;PR18.c: 384: delay(600);
  2990  0FAF  3000               	movlw	0
  2991  0FB0  00F3               	movwf	(?_delay+3)
  2992  0FB1  3000               	movlw	0
  2993  0FB2  00F2               	movwf	(?_delay+2)
  2994  0FB3  3002               	movlw	02h
  2995  0FB4  00F1               	movwf	(?_delay+1)
  2996  0FB5  3058               	movlw	058h
  2997  0FB6  00F0               	movwf	(?_delay)
  2998                           
  2999  0FB7  120A  118A  20A5   	fcall	_delay
              120A  158A         
  3000                           	line	385
  3001                           	
  3002  0FBC                     l593:	
  3003  0FBC  0008               	return
  3004                           	opt stack 0
  3005                           GLOBAL	__end_of_lcd_clr
  3006  0FBD                     	__end_of_lcd_clr:
  3007 ;; =============== function _lcd_clr ends ============
  3008                           
  3009                           	signat	_lcd_clr,88
  3010                           	global	_send_char
  3011                           psect	text268,local,class=CODE,delta=2
  3012                           global __ptext268
  3013  0059                     __ptext268:
  3014                           
  3015 ;; *************** function _send_char *****************
  3016 ;; Defined at:
  3017 ;;		line 358 in file "C:\Users\Phang\Desktop\9.80\PR 18\PR18.c"
  3018 ;; Parameters:    Size  Location     Type
  3019 ;;  data            1    wreg     unsigned char 
  3020 ;; Auto vars:     Size  Location     Type
  3021 ;;  data            1    8[COMMON] unsigned char 
  3022 ;; Return value:  Size  Location     Type
  3023 ;;		None               void
  3024 ;; Registers used:
  3025 ;;		wreg, status,2, status,0, pclath, cstack
  3026 ;; Tracked objects:
  3027 ;;		On entry : 0/0
  3028 ;;		On exit  : 0/0
  3029 ;;		Unchanged: 0/0
  3030 ;; Data sizes:     COMMON   BANK0   BANK1   BANK3   BANK2
  3031 ;;      Params:         0       0       0       0       0
  3032 ;;      Locals:         1       0       0       0       0
  3033 ;;      Temps:          0       0       0       0       0
  3034 ;;      Totals:         1       0       0       0       0
  3035 ;;Total ram usage:        1 bytes
  3036 ;; Hardware stack levels used:    1
  3037 ;; Hardware stack levels required when called:    1
  3038 ;; This function calls:
  3039 ;;		_delay
  3040 ;; This function is called by:
  3041 ;;		_mode1
  3042 ;;		_mode2
  3043 ;;		_send_string
  3044 ;; This function uses a non-reentrant model
  3045 ;;
  3046                           psect	text268
  3047                           	file	"C:\Users\Phang\Desktop\9.80\PR 18\PR18.c"
  3048                           	line	358
  3049                           	global	__size_of_send_char
  3050  0026                     	__size_of_send_char	equ	__end_of_send_char-_send_char
  3051                           	
  3052  0059                     _send_char:	
  3053                           	opt	stack 5
  3054                           ; Regs used in _send_char: [wreg+status,2+status,0+pclath+cstack]
  3055                           ;send_char@data stored from wreg
  3056  0059  00F8               	movwf	(send_char@data)
  3057                           	line	359
  3058                           	
  3059  005A                     l2349:	
  3060                           ;PR18.c: 359: RC4=0;
  3061  005A  1283               	bcf	status, 5	;RP0=0, select bank0
  3062  005B  1303               	bcf	status, 6	;RP1=0, select bank0
  3063  005C  1207               	bcf	(60/8),(60)&7
  3064                           	line	360
  3065                           ;PR18.c: 360: RC3=1;
  3066  005D  1587               	bsf	(59/8),(59)&7
  3067                           	line	361
  3068                           	
  3069  005E                     l2351:	
  3070                           ;PR18.c: 361: PORTB=data;
  3071  005E  0878               	movf	(send_char@data),w
  3072  005F  0086               	movwf	(6)	;volatile
  3073                           	line	362
  3074                           	
  3075  0060                     l2353:	
  3076                           ;PR18.c: 362: RC5=1;
  3077  0060  1687               	bsf	(61/8),(61)&7
  3078                           	line	363
  3079                           	
  3080  0061                     l2355:	
  3081                           ;PR18.c: 363: delay(10);
  3082  0061  3000               	movlw	0
  3083  0062  00F3               	movwf	(?_delay+3)
  3084  0063  3000               	movlw	0
  3085  0064  00F2               	movwf	(?_delay+2)
  3086  0065  3000               	movlw	0
  3087  0066  00F1               	movwf	(?_delay+1)
  3088  0067  300A               	movlw	0Ah
  3089  0068  00F0               	movwf	(?_delay)
  3090                           
  3091  0069  120A  118A  20A5   	fcall	_delay
              120A  118A         
  3092                           	line	364
  3093                           	
  3094  006E                     l2357:	
  3095                           ;PR18.c: 364: RC5=0;
  3096  006E  1283               	bcf	status, 5	;RP0=0, select bank0
  3097  006F  1303               	bcf	status, 6	;RP1=0, select bank0
  3098  0070  1287               	bcf	(61/8),(61)&7
  3099                           	line	365
  3100                           	
  3101  0071                     l2359:	
  3102                           ;PR18.c: 365: delay(10);
  3103  0071  3000               	movlw	0
  3104  0072  00F3               	movwf	(?_delay+3)
  3105  0073  3000               	movlw	0
  3106  0074  00F2               	movwf	(?_delay+2)
  3107  0075  3000               	movlw	0
  3108  0076  00F1               	movwf	(?_delay+1)
  3109  0077  300A               	movlw	0Ah
  3110  0078  00F0               	movwf	(?_delay)
  3111                           
  3112  0079  120A  118A  20A5   	fcall	_delay
              120A  118A         
  3113                           	line	366
  3114                           	
  3115  007E                     l585:	
  3116  007E  0008               	return
  3117                           	opt stack 0
  3118                           GLOBAL	__end_of_send_char
  3119  007F                     	__end_of_send_char:
  3120 ;; =============== function _send_char ends ============
  3121                           
  3122                           	signat	_send_char,4216
  3123                           	global	_send_cmd
  3124                           psect	text269,local,class=CODE,delta=2
  3125                           global __ptext269
  3126  00D5                     __ptext269:
  3127                           
  3128 ;; *************** function _send_cmd *****************
  3129 ;; Defined at:
  3130 ;;		line 399 in file "C:\Users\Phang\Desktop\9.80\PR 18\PR18.c"
  3131 ;; Parameters:    Size  Location     Type
  3132 ;;  num             1    wreg     unsigned char 
  3133 ;;  data            2    1[COMMON] unsigned int 
  3134 ;;  ramp            2    3[COMMON] unsigned int 
  3135 ;; Auto vars:     Size  Location     Type
  3136 ;;  num             1    8[COMMON] unsigned char 
  3137 ;;  lower_byte      1   10[COMMON] unsigned char 
  3138 ;;  higher_byte     1    9[COMMON] unsigned char 
  3139 ;; Return value:  Size  Location     Type
  3140 ;;		None               void
  3141 ;; Registers used:
  3142 ;;		wreg, status,2, status,0, pclath, cstack
  3143 ;; Tracked objects:
  3144 ;;		On entry : 0/0
  3145 ;;		On exit  : 0/0
  3146 ;;		Unchanged: 0/0
  3147 ;; Data sizes:     COMMON   BANK0   BANK1   BANK3   BANK2
  3148 ;;      Params:         4       0       0       0       0
  3149 ;;      Locals:         3       0       0       0       0
  3150 ;;      Temps:          3       0       0       0       0
  3151 ;;      Totals:        10       0       0       0       0
  3152 ;;Total ram usage:       10 bytes
  3153 ;; Hardware stack levels used:    1
  3154 ;; Hardware stack levels required when called:    1
  3155 ;; This function calls:
  3156 ;;		_uart_send
  3157 ;; This function is called by:
  3158 ;;		_main
  3159 ;;		_mode1
  3160 ;;		_mode2
  3161 ;; This function uses a non-reentrant model
  3162 ;;
  3163                           psect	text269
  3164                           	file	"C:\Users\Phang\Desktop\9.80\PR 18\PR18.c"
  3165                           	line	399
  3166                           	global	__size_of_send_cmd
  3167  0039                     	__size_of_send_cmd	equ	__end_of_send_cmd-_send_cmd
  3168                           	
  3169  00D5                     _send_cmd:	
  3170                           	opt	stack 5
  3171                           ; Regs used in _send_cmd: [wreg+status,2+status,0+pclath+cstack]
  3172                           ;send_cmd@num stored from wreg
  3173  00D5  00F8               	movwf	(send_cmd@num)
  3174                           	line	400
  3175                           	
  3176  00D6                     l2337:	
  3177                           ;PR18.c: 400: unsigned char higher_byte=0, lower_byte=0;
  3178  00D6  1003               	clrc
  3179  00D7  3000               	movlw	0
  3180  00D8  1803               	btfsc	status,0
  3181  00D9  3001               	movlw	1
  3182  00DA  00F9               	movwf	(send_cmd@higher_byte)
  3183  00DB  1003               	clrc
  3184  00DC  3000               	movlw	0
  3185  00DD  1803               	btfsc	status,0
  3186  00DE  3001               	movlw	1
  3187  00DF  00FA               	movwf	(send_cmd@lower_byte)
  3188                           	line	404
  3189                           ;PR18.c: 404: higher_byte=(data>>6)&0x003f;
  3190  00E0  0872               	movf	(send_cmd@data+1),w
  3191  00E1  00F6               	movwf	(??_send_cmd+0)+0+1
  3192  00E2  0871               	movf	(send_cmd@data),w
  3193  00E3  00F5               	movwf	(??_send_cmd+0)+0
  3194  00E4  3006               	movlw	06h
  3195  00E5                     u2655:
  3196  00E5  1003               	clrc
  3197  00E6  0CF6               	rrf	(??_send_cmd+0)+1,f
  3198  00E7  0CF5               	rrf	(??_send_cmd+0)+0,f
  3199  00E8  3EFF               	addlw	-1
  3200  00E9  1D03               	skipz
  3201  00EA  28E5               	goto	u2655
  3202  00EB  0875               	movf	0+(??_send_cmd+0)+0,w
  3203  00EC  393F               	andlw	03Fh
  3204  00ED  00F7               	movwf	(??_send_cmd+2)+0
  3205  00EE  0877               	movf	(??_send_cmd+2)+0,w
  3206  00EF  00F9               	movwf	(send_cmd@higher_byte)
  3207                           	line	405
  3208                           	
  3209  00F0                     l2339:	
  3210                           ;PR18.c: 405: lower_byte=data&0x003f;
  3211  00F0  0871               	movf	(send_cmd@data),w
  3212  00F1  393F               	andlw	03Fh
  3213  00F2  00F5               	movwf	(??_send_cmd+0)+0
  3214  00F3  0875               	movf	(??_send_cmd+0)+0,w
  3215  00F4  00FA               	movwf	(send_cmd@lower_byte)
  3216                           	line	407
  3217                           	
  3218  00F5                     l2341:	
  3219                           ;PR18.c: 407: uart_send(num);
  3220  00F5  0878               	movf	(send_cmd@num),w
  3221  00F6  120A  118A  204D   	fcall	_uart_send
              120A  118A         
  3222                           	line	408
  3223                           	
  3224  00FB                     l2343:	
  3225                           ;PR18.c: 408: uart_send(higher_byte);
  3226  00FB  0879               	movf	(send_cmd@higher_byte),w
  3227  00FC  120A  118A  204D   	fcall	_uart_send
              120A  118A         
  3228                           	line	409
  3229                           	
  3230  0101                     l2345:	
  3231                           ;PR18.c: 409: uart_send(lower_byte);
  3232  0101  087A               	movf	(send_cmd@lower_byte),w
  3233  0102  120A  118A  204D   	fcall	_uart_send
              120A  118A         
  3234                           	line	410
  3235                           	
  3236  0107                     l2347:	
  3237                           ;PR18.c: 410: uart_send(ramp);
  3238  0107  0873               	movf	(send_cmd@ramp),w
  3239  0108  120A  118A  204D   	fcall	_uart_send
              120A  118A         
  3240                           	line	411
  3241                           	
  3242  010D                     l610:	
  3243  010D  0008               	return
  3244                           	opt stack 0
  3245                           GLOBAL	__end_of_send_cmd
  3246  010E                     	__end_of_send_cmd:
  3247 ;; =============== function _send_cmd ends ============
  3248                           
  3249                           	signat	_send_cmd,12408
  3250                           	global	_send_config
  3251                           psect	text270,local,class=CODE,delta=2
  3252                           global __ptext270
  3253  0FDA                     __ptext270:
  3254                           
  3255 ;; *************** function _send_config *****************
  3256 ;; Defined at:
  3257 ;;		line 347 in file "C:\Users\Phang\Desktop\9.80\PR 18\PR18.c"
  3258 ;; Parameters:    Size  Location     Type
  3259 ;;  data            1    wreg     unsigned char 
  3260 ;; Auto vars:     Size  Location     Type
  3261 ;;  data            1    8[COMMON] unsigned char 
  3262 ;; Return value:  Size  Location     Type
  3263 ;;		None               void
  3264 ;; Registers used:
  3265 ;;		wreg, status,2, status,0, pclath, cstack
  3266 ;; Tracked objects:
  3267 ;;		On entry : 0/0
  3268 ;;		On exit  : 0/0
  3269 ;;		Unchanged: 0/0
  3270 ;; Data sizes:     COMMON   BANK0   BANK1   BANK3   BANK2
  3271 ;;      Params:         0       0       0       0       0
  3272 ;;      Locals:         1       0       0       0       0
  3273 ;;      Temps:          0       0       0       0       0
  3274 ;;      Totals:         1       0       0       0       0
  3275 ;;Total ram usage:        1 bytes
  3276 ;; Hardware stack levels used:    1
  3277 ;; Hardware stack levels required when called:    1
  3278 ;; This function calls:
  3279 ;;		_delay
  3280 ;; This function is called by:
  3281 ;;		_main
  3282 ;;		_lcd_goto
  3283 ;;		_lcd_clr
  3284 ;; This function uses a non-reentrant model
  3285 ;;
  3286                           psect	text270
  3287                           	file	"C:\Users\Phang\Desktop\9.80\PR 18\PR18.c"
  3288                           	line	347
  3289                           	global	__size_of_send_config
  3290  0026                     	__size_of_send_config	equ	__end_of_send_config-_send_config
  3291                           	
  3292  0FDA                     _send_config:	
  3293                           	opt	stack 4
  3294                           ; Regs used in _send_config: [wreg+status,2+status,0+pclath+cstack]
  3295                           ;send_config@data stored from wreg
  3296  0FDA  00F8               	movwf	(send_config@data)
  3297                           	line	348
  3298                           	
  3299  0FDB                     l2325:	
  3300                           ;PR18.c: 348: RC4=0;
  3301  0FDB  1283               	bcf	status, 5	;RP0=0, select bank0
  3302  0FDC  1303               	bcf	status, 6	;RP1=0, select bank0
  3303  0FDD  1207               	bcf	(60/8),(60)&7
  3304                           	line	349
  3305                           ;PR18.c: 349: RC3=0;
  3306  0FDE  1187               	bcf	(59/8),(59)&7
  3307                           	line	350
  3308                           	
  3309  0FDF                     l2327:	
  3310                           ;PR18.c: 350: PORTB=data;
  3311  0FDF  0878               	movf	(send_config@data),w
  3312  0FE0  0086               	movwf	(6)	;volatile
  3313                           	line	351
  3314                           	
  3315  0FE1                     l2329:	
  3316                           ;PR18.c: 351: RC5=1;
  3317  0FE1  1687               	bsf	(61/8),(61)&7
  3318                           	line	352
  3319                           	
  3320  0FE2                     l2331:	
  3321                           ;PR18.c: 352: delay(50);
  3322  0FE2  3000               	movlw	0
  3323  0FE3  00F3               	movwf	(?_delay+3)
  3324  0FE4  3000               	movlw	0
  3325  0FE5  00F2               	movwf	(?_delay+2)
  3326  0FE6  3000               	movlw	0
  3327  0FE7  00F1               	movwf	(?_delay+1)
  3328  0FE8  3032               	movlw	032h
  3329  0FE9  00F0               	movwf	(?_delay)
  3330                           
  3331  0FEA  120A  118A  20A5   	fcall	_delay
              120A  158A         
  3332                           	line	353
  3333                           	
  3334  0FEF                     l2333:	
  3335                           ;PR18.c: 353: RC5=0;
  3336  0FEF  1283               	bcf	status, 5	;RP0=0, select bank0
  3337  0FF0  1303               	bcf	status, 6	;RP1=0, select bank0
  3338  0FF1  1287               	bcf	(61/8),(61)&7
  3339                           	line	354
  3340                           	
  3341  0FF2                     l2335:	
  3342                           ;PR18.c: 354: delay(50);
  3343  0FF2  3000               	movlw	0
  3344  0FF3  00F3               	movwf	(?_delay+3)
  3345  0FF4  3000               	movlw	0
  3346  0FF5  00F2               	movwf	(?_delay+2)
  3347  0FF6  3000               	movlw	0
  3348  0FF7  00F1               	movwf	(?_delay+1)
  3349  0FF8  3032               	movlw	032h
  3350  0FF9  00F0               	movwf	(?_delay)
  3351                           
  3352  0FFA  120A  118A  20A5   	fcall	_delay
              120A  158A         
  3353                           	line	355
  3354                           	
  3355  0FFF                     l582:	
  3356  0FFF  0008               	return
  3357                           	opt stack 0
  3358                           GLOBAL	__end_of_send_config
  3359  1000                     	__end_of_send_config:
  3360 ;; =============== function _send_config ends ============
  3361                           
  3362                           	signat	_send_config,4216
  3363                           	global	___awmod
  3364                           psect	text271,local,class=CODE,delta=2
  3365                           global __ptext271
  3366  010E                     __ptext271:
  3367                           
  3368 ;; *************** function ___awmod *****************
  3369 ;; Defined at:
  3370 ;;		line 5 in file "C:\Program Files\HI-TECH Software\sources\awmod.c"
  3371 ;; Parameters:    Size  Location     Type
  3372 ;;  divisor         2    0[COMMON] int 
  3373 ;;  dividend        2    2[COMMON] int 
  3374 ;; Auto vars:     Size  Location     Type
  3375 ;;  sign            1    6[COMMON] unsigned char 
  3376 ;;  counter         1    5[COMMON] unsigned char 
  3377 ;; Return value:  Size  Location     Type
  3378 ;;                  2    0[COMMON] int 
  3379 ;; Registers used:
  3380 ;;		wreg, status,2, status,0
  3381 ;; Tracked objects:
  3382 ;;		On entry : 0/0
  3383 ;;		On exit  : 0/0
  3384 ;;		Unchanged: 0/0
  3385 ;; Data sizes:     COMMON   BANK0   BANK1   BANK3   BANK2
  3386 ;;      Params:         4       0       0       0       0
  3387 ;;      Locals:         2       0       0       0       0
  3388 ;;      Temps:          1       0       0       0       0
  3389 ;;      Totals:         7       0       0       0       0
  3390 ;;Total ram usage:        7 bytes
  3391 ;; Hardware stack levels used:    1
  3392 ;; This function calls:
  3393 ;;		Nothing
  3394 ;; This function is called by:
  3395 ;;		_mode2
  3396 ;; This function uses a non-reentrant model
  3397 ;;
  3398                           psect	text271
  3399                           	file	"C:\Program Files\HI-TECH Software\sources\awmod.c"
  3400                           	line	5
  3401                           	global	__size_of___awmod
  3402  006A                     	__size_of___awmod	equ	__end_of___awmod-___awmod
  3403                           	
  3404  010E                     ___awmod:	
  3405                           	opt	stack 6
  3406                           ; Regs used in ___awmod: [wreg+status,2+status,0]
  3407                           	line	8
  3408                           	
  3409  010E                     l2289:	
  3410  010E  1003               	clrc
  3411  010F  3000               	movlw	0
  3412  0110  1803               	btfsc	status,0
  3413  0111  3001               	movlw	1
  3414  0112  00F6               	movwf	(___awmod@sign)
  3415                           	line	9
  3416                           	
  3417  0113                     l2291:	
  3418  0113  1FF3               	btfss	(___awmod@dividend+1),7
  3419  0114  2916               	goto	u2561
  3420  0115  2917               	goto	u2560
  3421  0116                     u2561:
  3422  0116  2920               	goto	l2295
  3423  0117                     u2560:
  3424                           	line	10
  3425                           	
  3426  0117                     l2293:	
  3427  0117  09F2               	comf	(___awmod@dividend),f
  3428  0118  09F3               	comf	(___awmod@dividend+1),f
  3429  0119  0AF2               	incf	(___awmod@dividend),f
  3430  011A  1903               	skipnz
  3431  011B  0AF3               	incf	(___awmod@dividend+1),f
  3432                           	line	11
  3433  011C  01F6               	clrf	(___awmod@sign)
  3434  011D  1403               	bsf	status,0
  3435  011E  0DF6               	rlf	(___awmod@sign),f
  3436  011F  2920               	goto	l2295
  3437                           	line	12
  3438                           	
  3439  0120                     l827:	
  3440                           	line	13
  3441                           	
  3442  0120                     l2295:	
  3443  0120  1FF1               	btfss	(___awmod@divisor+1),7
  3444  0121  2923               	goto	u2571
  3445  0122  2924               	goto	u2570
  3446  0123                     u2571:
  3447  0123  292A               	goto	l2299
  3448  0124                     u2570:
  3449                           	line	14
  3450                           	
  3451  0124                     l2297:	
  3452  0124  09F0               	comf	(___awmod@divisor),f
  3453  0125  09F1               	comf	(___awmod@divisor+1),f
  3454  0126  0AF0               	incf	(___awmod@divisor),f
  3455  0127  1903               	skipnz
  3456  0128  0AF1               	incf	(___awmod@divisor+1),f
  3457  0129  292A               	goto	l2299
  3458                           	
  3459  012A                     l828:	
  3460                           	line	15
  3461                           	
  3462  012A                     l2299:	
  3463  012A  0871               	movf	(___awmod@divisor+1),w
  3464  012B  0470               	iorwf	(___awmod@divisor),w
  3465  012C  1903               	skipnz
  3466  012D  292F               	goto	u2581
  3467  012E  2930               	goto	u2580
  3468  012F                     u2581:
  3469  012F  2966               	goto	l2317
  3470  0130                     u2580:
  3471                           	line	16
  3472                           	
  3473  0130                     l2301:	
  3474  0130  01F5               	clrf	(___awmod@counter)
  3475  0131  1403               	bsf	status,0
  3476  0132  0DF5               	rlf	(___awmod@counter),f
  3477                           	line	17
  3478  0133  2940               	goto	l2307
  3479                           	
  3480  0134                     l831:	
  3481                           	line	18
  3482                           	
  3483  0134                     l2303:	
  3484  0134  3001               	movlw	01h
  3485                           	
  3486  0135                     u2595:
  3487  0135  1003               	clrc
  3488  0136  0DF0               	rlf	(___awmod@divisor),f
  3489  0137  0DF1               	rlf	(___awmod@divisor+1),f
  3490  0138  3EFF               	addlw	-1
  3491  0139  1D03               	skipz
  3492  013A  2935               	goto	u2595
  3493                           	line	19
  3494                           	
  3495  013B                     l2305:	
  3496  013B  3001               	movlw	(01h)
  3497  013C  00F4               	movwf	(??___awmod+0)+0
  3498  013D  0874               	movf	(??___awmod+0)+0,w
  3499  013E  07F5               	addwf	(___awmod@counter),f
  3500  013F  2940               	goto	l2307
  3501                           	line	20
  3502                           	
  3503  0140                     l830:	
  3504                           	line	17
  3505                           	
  3506  0140                     l2307:	
  3507  0140  1FF1               	btfss	(___awmod@divisor+1),(15)&7
  3508  0141  2943               	goto	u2601
  3509  0142  2944               	goto	u2600
  3510  0143                     u2601:
  3511  0143  2934               	goto	l2303
  3512  0144                     u2600:
  3513  0144  2946               	goto	l2309
  3514                           	
  3515  0145                     l832:	
  3516  0145  2946               	goto	l2309
  3517                           	line	21
  3518                           	
  3519  0146                     l833:	
  3520                           	line	22
  3521                           	
  3522  0146                     l2309:	
  3523  0146  0871               	movf	(___awmod@divisor+1),w
  3524  0147  0273               	subwf	(___awmod@dividend+1),w
  3525  0148  1D03               	skipz
  3526  0149  294C               	goto	u2615
  3527  014A  0870               	movf	(___awmod@divisor),w
  3528  014B  0272               	subwf	(___awmod@dividend),w
  3529  014C                     u2615:
  3530  014C  1C03               	skipc
  3531  014D  294F               	goto	u2611
  3532  014E  2950               	goto	u2610
  3533  014F                     u2611:
  3534  014F  2957               	goto	l2313
  3535  0150                     u2610:
  3536                           	line	23
  3537                           	
  3538  0150                     l2311:	
  3539  0150  0870               	movf	(___awmod@divisor),w
  3540  0151  02F2               	subwf	(___awmod@dividend),f
  3541  0152  0871               	movf	(___awmod@divisor+1),w
  3542  0153  1C03               	skipc
  3543  0154  03F3               	decf	(___awmod@dividend+1),f
  3544  0155  02F3               	subwf	(___awmod@dividend+1),f
  3545  0156  2957               	goto	l2313
  3546                           	
  3547  0157                     l834:	
  3548                           	line	24
  3549                           	
  3550  0157                     l2313:	
  3551  0157  3001               	movlw	01h
  3552                           	
  3553  0158                     u2625:
  3554  0158  1003               	clrc
  3555  0159  0CF1               	rrf	(___awmod@divisor+1),f
  3556  015A  0CF0               	rrf	(___awmod@divisor),f
  3557  015B  3EFF               	addlw	-1
  3558  015C  1D03               	skipz
  3559  015D  2958               	goto	u2625
  3560                           	line	25
  3561                           	
  3562  015E                     l2315:	
  3563  015E  3001               	movlw	low(01h)
  3564  015F  02F5               	subwf	(___awmod@counter),f
  3565  0160  1D03               	btfss	status,2
  3566  0161  2963               	goto	u2631
  3567  0162  2964               	goto	u2630
  3568  0163                     u2631:
  3569  0163  2946               	goto	l2309
  3570  0164                     u2630:
  3571  0164  2966               	goto	l2317
  3572                           	
  3573  0165                     l835:	
  3574  0165  2966               	goto	l2317
  3575                           	line	26
  3576                           	
  3577  0166                     l829:	
  3578                           	line	27
  3579                           	
  3580  0166                     l2317:	
  3581  0166  0876               	movf	(___awmod@sign),w
  3582  0167  1D03               	skipz
  3583  0168  296A               	goto	u2640
  3584  0169  2970               	goto	l2321
  3585  016A                     u2640:
  3586                           	line	28
  3587                           	
  3588  016A                     l2319:	
  3589  016A  09F2               	comf	(___awmod@dividend),f
  3590  016B  09F3               	comf	(___awmod@dividend+1),f
  3591  016C  0AF2               	incf	(___awmod@dividend),f
  3592  016D  1903               	skipnz
  3593  016E  0AF3               	incf	(___awmod@dividend+1),f
  3594  016F  2970               	goto	l2321
  3595                           	
  3596  0170                     l836:	
  3597                           	line	29
  3598                           	
  3599  0170                     l2321:	
  3600  0170  0873               	movf	(___awmod@dividend+1),w
  3601  0171  01F1               	clrf	(?___awmod+1)
  3602  0172  07F1               	addwf	(?___awmod+1)
  3603  0173  0872               	movf	(___awmod@dividend),w
  3604  0174  01F0               	clrf	(?___awmod)
  3605  0175  07F0               	addwf	(?___awmod)
  3606                           
  3607  0176  2977               	goto	l837
  3608                           	
  3609  0177                     l2323:	
  3610                           	line	30
  3611                           	
  3612  0177                     l837:	
  3613  0177  0008               	return
  3614                           	opt stack 0
  3615                           GLOBAL	__end_of___awmod
  3616  0178                     	__end_of___awmod:
  3617 ;; =============== function ___awmod ends ============
  3618                           
  3619                           	signat	___awmod,8314
  3620                           	global	___awdiv
  3621                           psect	text272,local,class=CODE,delta=2
  3622                           global __ptext272
  3623  0178                     __ptext272:
  3624                           
  3625 ;; *************** function ___awdiv *****************
  3626 ;; Defined at:
  3627 ;;		line 5 in file "C:\Program Files\HI-TECH Software\sources\awdiv.c"
  3628 ;; Parameters:    Size  Location     Type
  3629 ;;  divisor         2    7[COMMON] int 
  3630 ;;  dividend        2    9[COMMON] int 
  3631 ;; Auto vars:     Size  Location     Type
  3632 ;;  quotient        2    2[BANK0 ] int 
  3633 ;;  sign            1    1[BANK0 ] unsigned char 
  3634 ;;  counter         1    0[BANK0 ] unsigned char 
  3635 ;; Return value:  Size  Location     Type
  3636 ;;                  2    7[COMMON] int 
  3637 ;; Registers used:
  3638 ;;		wreg, status,2, status,0
  3639 ;; Tracked objects:
  3640 ;;		On entry : 0/0
  3641 ;;		On exit  : 0/0
  3642 ;;		Unchanged: 0/0
  3643 ;; Data sizes:     COMMON   BANK0   BANK1   BANK3   BANK2
  3644 ;;      Params:         4       0       0       0       0
  3645 ;;      Locals:         0       4       0       0       0
  3646 ;;      Temps:          1       0       0       0       0
  3647 ;;      Totals:         5       4       0       0       0
  3648 ;;Total ram usage:        9 bytes
  3649 ;; Hardware stack levels used:    1
  3650 ;; This function calls:
  3651 ;;		Nothing
  3652 ;; This function is called by:
  3653 ;;		_mode2
  3654 ;; This function uses a non-reentrant model
  3655 ;;
  3656                           psect	text272
  3657                           	file	"C:\Program Files\HI-TECH Software\sources\awdiv.c"
  3658                           	line	5
  3659                           	global	__size_of___awdiv
  3660  007B                     	__size_of___awdiv	equ	__end_of___awdiv-___awdiv
  3661                           	
  3662  0178                     ___awdiv:	
  3663                           	opt	stack 6
  3664                           ; Regs used in ___awdiv: [wreg+status,2+status,0]
  3665                           	line	9
  3666                           	
  3667  0178                     l2251:	
  3668  0178  1003               	clrc
  3669  0179  3000               	movlw	0
  3670  017A  1803               	btfsc	status,0
  3671  017B  3001               	movlw	1
  3672  017C  1283               	bcf	status, 5	;RP0=0, select bank0
  3673  017D  1303               	bcf	status, 6	;RP1=0, select bank0
  3674  017E  00A1               	movwf	(___awdiv@sign)
  3675                           	line	10
  3676                           	
  3677  017F                     l2253:	
  3678  017F  1FF8               	btfss	(___awdiv@divisor+1),7
  3679  0180  2982               	goto	u2461
  3680  0181  2983               	goto	u2460
  3681  0182                     u2461:
  3682  0182  298C               	goto	l2257
  3683  0183                     u2460:
  3684                           	line	11
  3685                           	
  3686  0183                     l2255:	
  3687  0183  09F7               	comf	(___awdiv@divisor),f
  3688  0184  09F8               	comf	(___awdiv@divisor+1),f
  3689  0185  0AF7               	incf	(___awdiv@divisor),f
  3690  0186  1903               	skipnz
  3691  0187  0AF8               	incf	(___awdiv@divisor+1),f
  3692                           	line	12
  3693  0188  01A1               	clrf	(___awdiv@sign)
  3694  0189  1403               	bsf	status,0
  3695  018A  0DA1               	rlf	(___awdiv@sign),f
  3696  018B  298C               	goto	l2257
  3697                           	line	13
  3698                           	
  3699  018C                     l759:	
  3700                           	line	14
  3701                           	
  3702  018C                     l2257:	
  3703  018C  1FFA               	btfss	(___awdiv@dividend+1),7
  3704  018D  298F               	goto	u2471
  3705  018E  2990               	goto	u2470
  3706  018F                     u2471:
  3707  018F  2999               	goto	l760
  3708  0190                     u2470:
  3709                           	line	15
  3710                           	
  3711  0190                     l2259:	
  3712  0190  09F9               	comf	(___awdiv@dividend),f
  3713  0191  09FA               	comf	(___awdiv@dividend+1),f
  3714  0192  0AF9               	incf	(___awdiv@dividend),f
  3715  0193  1903               	skipnz
  3716  0194  0AFA               	incf	(___awdiv@dividend+1),f
  3717                           	line	16
  3718                           	
  3719  0195                     l2261:	
  3720  0195  3001               	movlw	(01h)
  3721  0196  00FB               	movwf	(??___awdiv+0)+0
  3722  0197  087B               	movf	(??___awdiv+0)+0,w
  3723  0198  06A1               	xorwf	(___awdiv@sign),f
  3724                           	line	17
  3725                           	
  3726  0199                     l760:	
  3727                           	line	18
  3728  0199  3000               	movlw	low(0)
  3729  019A  00A2               	movwf	(___awdiv@quotient)
  3730  019B  3000               	movlw	high(0)
  3731  019C  00A3               	movwf	((___awdiv@quotient))+1
  3732                           	line	19
  3733  019D  0878               	movf	(___awdiv@divisor+1),w
  3734  019E  0477               	iorwf	(___awdiv@divisor),w
  3735  019F  1903               	skipnz
  3736  01A0  29A2               	goto	u2481
  3737  01A1  29A3               	goto	u2480
  3738  01A2                     u2481:
  3739  01A2  29E1               	goto	l2281
  3740  01A3                     u2480:
  3741                           	line	20
  3742                           	
  3743  01A3                     l2263:	
  3744  01A3  01A0               	clrf	(___awdiv@counter)
  3745  01A4  1403               	bsf	status,0
  3746  01A5  0DA0               	rlf	(___awdiv@counter),f
  3747                           	line	21
  3748  01A6  29B3               	goto	l2269
  3749                           	
  3750  01A7                     l763:	
  3751                           	line	22
  3752                           	
  3753  01A7                     l2265:	
  3754  01A7  3001               	movlw	01h
  3755                           	
  3756  01A8                     u2495:
  3757  01A8  1003               	clrc
  3758  01A9  0DF7               	rlf	(___awdiv@divisor),f
  3759  01AA  0DF8               	rlf	(___awdiv@divisor+1),f
  3760  01AB  3EFF               	addlw	-1
  3761  01AC  1D03               	skipz
  3762  01AD  29A8               	goto	u2495
  3763                           	line	23
  3764                           	
  3765  01AE                     l2267:	
  3766  01AE  3001               	movlw	(01h)
  3767  01AF  00FB               	movwf	(??___awdiv+0)+0
  3768  01B0  087B               	movf	(??___awdiv+0)+0,w
  3769  01B1  07A0               	addwf	(___awdiv@counter),f
  3770  01B2  29B3               	goto	l2269
  3771                           	line	24
  3772                           	
  3773  01B3                     l762:	
  3774                           	line	21
  3775                           	
  3776  01B3                     l2269:	
  3777  01B3  1FF8               	btfss	(___awdiv@divisor+1),(15)&7
  3778  01B4  29B6               	goto	u2501
  3779  01B5  29B7               	goto	u2500
  3780  01B6                     u2501:
  3781  01B6  29A7               	goto	l2265
  3782  01B7                     u2500:
  3783  01B7  29B9               	goto	l2271
  3784                           	
  3785  01B8                     l764:	
  3786  01B8  29B9               	goto	l2271
  3787                           	line	25
  3788                           	
  3789  01B9                     l765:	
  3790                           	line	26
  3791                           	
  3792  01B9                     l2271:	
  3793  01B9  3001               	movlw	01h
  3794                           	
  3795  01BA                     u2515:
  3796  01BA  1003               	clrc
  3797  01BB  0DA2               	rlf	(___awdiv@quotient),f
  3798  01BC  0DA3               	rlf	(___awdiv@quotient+1),f
  3799  01BD  3EFF               	addlw	-1
  3800  01BE  1D03               	skipz
  3801  01BF  29BA               	goto	u2515
  3802                           	line	27
  3803  01C0  0878               	movf	(___awdiv@divisor+1),w
  3804  01C1  027A               	subwf	(___awdiv@dividend+1),w
  3805  01C2  1D03               	skipz
  3806  01C3  29C6               	goto	u2525
  3807  01C4  0877               	movf	(___awdiv@divisor),w
  3808  01C5  0279               	subwf	(___awdiv@dividend),w
  3809  01C6                     u2525:
  3810  01C6  1C03               	skipc
  3811  01C7  29C9               	goto	u2521
  3812  01C8  29CA               	goto	u2520
  3813  01C9                     u2521:
  3814  01C9  29D2               	goto	l2277
  3815  01CA                     u2520:
  3816                           	line	28
  3817                           	
  3818  01CA                     l2273:	
  3819  01CA  0877               	movf	(___awdiv@divisor),w
  3820  01CB  02F9               	subwf	(___awdiv@dividend),f
  3821  01CC  0878               	movf	(___awdiv@divisor+1),w
  3822  01CD  1C03               	skipc
  3823  01CE  03FA               	decf	(___awdiv@dividend+1),f
  3824  01CF  02FA               	subwf	(___awdiv@dividend+1),f
  3825                           	line	29
  3826                           	
  3827  01D0                     l2275:	
  3828  01D0  1422               	bsf	(___awdiv@quotient)+(0/8),(0)&7
  3829  01D1  29D2               	goto	l2277
  3830                           	line	30
  3831                           	
  3832  01D2                     l766:	
  3833                           	line	31
  3834                           	
  3835  01D2                     l2277:	
  3836  01D2  3001               	movlw	01h
  3837                           	
  3838  01D3                     u2535:
  3839  01D3  1003               	clrc
  3840  01D4  0CF8               	rrf	(___awdiv@divisor+1),f
  3841  01D5  0CF7               	rrf	(___awdiv@divisor),f
  3842  01D6  3EFF               	addlw	-1
  3843  01D7  1D03               	skipz
  3844  01D8  29D3               	goto	u2535
  3845                           	line	32
  3846                           	
  3847  01D9                     l2279:	
  3848  01D9  3001               	movlw	low(01h)
  3849  01DA  02A0               	subwf	(___awdiv@counter),f
  3850  01DB  1D03               	btfss	status,2
  3851  01DC  29DE               	goto	u2541
  3852  01DD  29DF               	goto	u2540
  3853  01DE                     u2541:
  3854  01DE  29B9               	goto	l2271
  3855  01DF                     u2540:
  3856  01DF  29E1               	goto	l2281
  3857                           	
  3858  01E0                     l767:	
  3859  01E0  29E1               	goto	l2281
  3860                           	line	33
  3861                           	
  3862  01E1                     l761:	
  3863                           	line	34
  3864                           	
  3865  01E1                     l2281:	
  3866  01E1  0821               	movf	(___awdiv@sign),w
  3867  01E2  1D03               	skipz
  3868  01E3  29E5               	goto	u2550
  3869  01E4  29EB               	goto	l2285
  3870  01E5                     u2550:
  3871                           	line	35
  3872                           	
  3873  01E5                     l2283:	
  3874  01E5  09A2               	comf	(___awdiv@quotient),f
  3875  01E6  09A3               	comf	(___awdiv@quotient+1),f
  3876  01E7  0AA2               	incf	(___awdiv@quotient),f
  3877  01E8  1903               	skipnz
  3878  01E9  0AA3               	incf	(___awdiv@quotient+1),f
  3879  01EA  29EB               	goto	l2285
  3880                           	
  3881  01EB                     l768:	
  3882                           	line	36
  3883                           	
  3884  01EB                     l2285:	
  3885  01EB  0823               	movf	(___awdiv@quotient+1),w
  3886  01EC  01F8               	clrf	(?___awdiv+1)
  3887  01ED  07F8               	addwf	(?___awdiv+1)
  3888  01EE  0822               	movf	(___awdiv@quotient),w
  3889  01EF  01F7               	clrf	(?___awdiv)
  3890  01F0  07F7               	addwf	(?___awdiv)
  3891                           
  3892  01F1  29F2               	goto	l769
  3893                           	
  3894  01F2                     l2287:	
  3895                           	line	37
  3896                           	
  3897  01F2                     l769:	
  3898  01F2  0008               	return
  3899                           	opt stack 0
  3900                           GLOBAL	__end_of___awdiv
  3901  01F3                     	__end_of___awdiv:
  3902 ;; =============== function ___awdiv ends ============
  3903                           
  3904                           	signat	___awdiv,8314
  3905                           	global	_uart_send
  3906                           psect	text273,local,class=CODE,delta=2
  3907                           global __ptext273
  3908  004D                     __ptext273:
  3909                           
  3910 ;; *************** function _uart_send *****************
  3911 ;; Defined at:
  3912 ;;		line 393 in file "C:\Users\Phang\Desktop\9.80\PR 18\PR18.c"
  3913 ;; Parameters:    Size  Location     Type
  3914 ;;  data            1    wreg     unsigned char 
  3915 ;; Auto vars:     Size  Location     Type
  3916 ;;  data            1    0[COMMON] unsigned char 
  3917 ;; Return value:  Size  Location     Type
  3918 ;;		None               void
  3919 ;; Registers used:
  3920 ;;		wreg
  3921 ;; Tracked objects:
  3922 ;;		On entry : 0/0
  3923 ;;		On exit  : 0/0
  3924 ;;		Unchanged: 0/0
  3925 ;; Data sizes:     COMMON   BANK0   BANK1   BANK3   BANK2
  3926 ;;      Params:         0       0       0       0       0
  3927 ;;      Locals:         1       0       0       0       0
  3928 ;;      Temps:          0       0       0       0       0
  3929 ;;      Totals:         1       0       0       0       0
  3930 ;;Total ram usage:        1 bytes
  3931 ;; Hardware stack levels used:    1
  3932 ;; This function calls:
  3933 ;;		Nothing
  3934 ;; This function is called by:
  3935 ;;		_send_cmd
  3936 ;; This function uses a non-reentrant model
  3937 ;;
  3938                           psect	text273
  3939                           	file	"C:\Users\Phang\Desktop\9.80\PR 18\PR18.c"
  3940                           	line	393
  3941                           	global	__size_of_uart_send
  3942  000C                     	__size_of_uart_send	equ	__end_of_uart_send-_uart_send
  3943                           	
  3944  004D                     _uart_send:	
  3945                           	opt	stack 5
  3946                           ; Regs used in _uart_send: [wreg]
  3947                           ;uart_send@data stored from wreg
  3948  004D  00F0               	movwf	(uart_send@data)
  3949                           	line	394
  3950                           	
  3951  004E                     l2247:	
  3952                           ;PR18.c: 394: while(TXIF==0);
  3953  004E  284F               	goto	l604
  3954                           	
  3955  004F                     l605:	
  3956                           	
  3957  004F                     l604:	
  3958  004F  1283               	bcf	status, 5	;RP0=0, select bank0
  3959  0050  1303               	bcf	status, 6	;RP1=0, select bank0
  3960  0051  1E0C               	btfss	(100/8),(100)&7
  3961  0052  2854               	goto	u2451
  3962  0053  2855               	goto	u2450
  3963  0054                     u2451:
  3964  0054  284F               	goto	l604
  3965  0055                     u2450:
  3966  0055  2856               	goto	l2249
  3967                           	
  3968  0056                     l606:	
  3969                           	line	395
  3970                           	
  3971  0056                     l2249:	
  3972                           ;PR18.c: 395: TXREG=data;
  3973  0056  0870               	movf	(uart_send@data),w
  3974  0057  0099               	movwf	(25)	;volatile
  3975                           	line	396
  3976                           	
  3977  0058                     l607:	
  3978  0058  0008               	return
  3979                           	opt stack 0
  3980                           GLOBAL	__end_of_uart_send
  3981  0059                     	__end_of_uart_send:
  3982 ;; =============== function _uart_send ends ============
  3983                           
  3984                           	signat	_uart_send,4216
  3985                           	global	_delay
  3986                           psect	text274,local,class=CODE,delta=2
  3987                           global __ptext274
  3988  00A5                     __ptext274:
  3989                           
  3990 ;; *************** function _delay *****************
  3991 ;; Defined at:
  3992 ;;		line 342 in file "C:\Users\Phang\Desktop\9.80\PR 18\PR18.c"
  3993 ;; Parameters:    Size  Location     Type
  3994 ;;  data            4    0[COMMON] unsigned long 
  3995 ;; Auto vars:     Size  Location     Type
  3996 ;;		None
  3997 ;; Return value:  Size  Location     Type
  3998 ;;		None               void
  3999 ;; Registers used:
  4000 ;;		wreg
  4001 ;; Tracked objects:
  4002 ;;		On entry : 0/0
  4003 ;;		On exit  : 0/0
  4004 ;;		Unchanged: 0/0
  4005 ;; Data sizes:     COMMON   BANK0   BANK1   BANK3   BANK2
  4006 ;;      Params:         4       0       0       0       0
  4007 ;;      Locals:         0       0       0       0       0
  4008 ;;      Temps:          4       0       0       0       0
  4009 ;;      Totals:         8       0       0       0       0
  4010 ;;Total ram usage:        8 bytes
  4011 ;; Hardware stack levels used:    1
  4012 ;; This function calls:
  4013 ;;		Nothing
  4014 ;; This function is called by:
  4015 ;;		_main
  4016 ;;		_mode1
  4017 ;;		_mode2
  4018 ;;		_send_config
  4019 ;;		_send_char
  4020 ;;		_lcd_clr
  4021 ;; This function uses a non-reentrant model
  4022 ;;
  4023                           psect	text274
  4024                           	file	"C:\Users\Phang\Desktop\9.80\PR 18\PR18.c"
  4025                           	line	342
  4026                           	global	__size_of_delay
  4027  0030                     	__size_of_delay	equ	__end_of_delay-_delay
  4028                           	
  4029  00A5                     _delay:	
  4030                           	opt	stack 6
  4031                           ; Regs used in _delay: [wreg]
  4032                           	line	343
  4033                           	
  4034  00A5                     l2241:	
  4035                           ;PR18.c: 343: for( ;data>0;data--);
  4036  00A5  0873               	movf	(delay@data+3),w
  4037  00A6  0472               	iorwf	(delay@data+2),w
  4038  00A7  0471               	iorwf	(delay@data+1),w
  4039  00A8  0470               	iorwf	(delay@data),w
  4040  00A9  1D03               	skipz
  4041  00AA  28AC               	goto	u2421
  4042  00AB  28AD               	goto	u2420
  4043  00AC                     u2421:
  4044  00AC  28AF               	goto	l2245
  4045  00AD                     u2420:
  4046  00AD  28D4               	goto	l579
  4047                           	
  4048  00AE                     l2243:	
  4049  00AE  28D4               	goto	l579
  4050                           	
  4051  00AF                     l577:	
  4052                           	
  4053  00AF                     l2245:	
  4054  00AF  3001               	movlw	01h
  4055  00B0  00F4               	movwf	((??_delay+0)+0)
  4056  00B1  3000               	movlw	0
  4057  00B2  00F5               	movwf	((??_delay+0)+0+1)
  4058  00B3  3000               	movlw	0
  4059  00B4  00F6               	movwf	((??_delay+0)+0+2)
  4060  00B5  3000               	movlw	0
  4061  00B6  00F7               	movwf	((??_delay+0)+0+3)
  4062  00B7  0874               	movf	0+(??_delay+0)+0,w
  4063  00B8  02F0               	subwf	(delay@data),f
  4064  00B9  0875               	movf	1+(??_delay+0)+0,w
  4065  00BA  1C03               	skipc
  4066  00BB  0F75               	incfsz	1+(??_delay+0)+0,w
  4067  00BC  28BE               	goto	u2435
  4068  00BD  28BF               	goto	u2436
  4069  00BE                     u2435:
  4070  00BE  02F1               	subwf	(delay@data+1),f
  4071  00BF                     u2436:
  4072  00BF  0876               	movf	2+(??_delay+0)+0,w
  4073  00C0  1C03               	skipc
  4074  00C1  0F76               	incfsz	2+(??_delay+0)+0,w
  4075  00C2  28C4               	goto	u2437
  4076  00C3  28C5               	goto	u2438
  4077  00C4                     u2437:
  4078  00C4  02F2               	subwf	(delay@data+2),f
  4079  00C5                     u2438:
  4080  00C5  0877               	movf	3+(??_delay+0)+0,w
  4081  00C6  1C03               	skipc
  4082  00C7  0F77               	incfsz	3+(??_delay+0)+0,w
  4083  00C8  28CA               	goto	u2439
  4084  00C9  28CB               	goto	u2430
  4085  00CA                     u2439:
  4086  00CA  02F3               	subwf	(delay@data+3),f
  4087  00CB                     u2430:
  4088                           
  4089  00CB  0873               	movf	(delay@data+3),w
  4090  00CC  0472               	iorwf	(delay@data+2),w
  4091  00CD  0471               	iorwf	(delay@data+1),w
  4092  00CE  0470               	iorwf	(delay@data),w
  4093  00CF  1D03               	skipz
  4094  00D0  28D2               	goto	u2441
  4095  00D1  28D3               	goto	u2440
  4096  00D2                     u2441:
  4097  00D2  28AF               	goto	l2245
  4098  00D3                     u2440:
  4099  00D3  28D4               	goto	l579
  4100                           	
  4101  00D4                     l578:	
  4102                           	line	344
  4103                           	
  4104  00D4                     l579:	
  4105  00D4  0008               	return
  4106                           	opt stack 0
  4107                           GLOBAL	__end_of_delay
  4108  00D5                     	__end_of_delay:
  4109 ;; =============== function _delay ends ============
  4110                           
  4111                           	signat	_delay,4216
  4112                           psect	text275,local,class=CODE,delta=2
  4113                           global __ptext275
  4114  0000                     __ptext275:
  4115                           	global	btemp
  4116  007E                     	btemp set 07Eh
  4117                           
  4118                           	DABS	1,126,2	;btemp
  4119                           	global	wtemp0
  4120  007E                     	wtemp0 set btemp


HI-TECH Software PICC Macro Assembler V9.80 build 6738 
Symbol Table                                                                                   Wed Jun 20 23:03:39 2012

                   pc 0002          ___awdiv@sign 0021                    fsr 0004                   l600 00A4  
                 l520 02EB                   l601 00A4                   l521 02EA                   l610 010D  
                 l530 0335                   l522 02E9                   l531 0350                   l523 0301  
                 l515 02BA                   l604 004F                   l540 060D                   l532 0343  
                 l516 0319                   l524 02F2                   l605 004F                   l541 07FE  
                 l533 035A                   l525 030B                   l517 02CC                   l606 0056  
                 l542 07FF                   l550 039A                   l534 0349                   l526 02F9  
                 l518 02DA                   l607 0058                   l543 07FF                   l551 03AC  
                 l535 035B                   l527 0320                   l519 02D9                   l560 0531  
                 l552 03AB                   l536 035C                   l528 032E                   l561 0443  
                 l553 03AA                   l537 035C                   l529 032E                   l570 0546  
                 l562 045E                   l554 03C8                   l546 0365                   l571 054D  
                 l563 045D                   l547 0408                   l555 03FA                   l572 055B  
                 l564 0479                   l556 040F                   l548 038D                   l573 055C  
                 l565 0479                   l557 041D                   l549 039B                   l830 0140  
                 l582 0FFF                   l590 0FD9                   l574 055C                   l566 0478  
                 l558 041D                   l831 0134                   l567 0523                   l559 0424  
                 l760 0199                   l832 0145                   l568 0538                   l577 00AF  
                 l761 01E1                   l833 0146                   l585 007E                   l593 0FBC  
                 l569 0546                   l578 00D4                   l762 01B3                   l834 0157  
                 l579 00D4                   l763 01A7                   l835 0165                   l827 0120  
                 l764 01B8                   l836 0170                   l828 012A                   l588 0FCC  
                 l596 0092                   l765 01B9                   l837 0177                   l829 0166  
                 l589 0FD9                   l597 0081                   l766 01D2                   l767 01E0  
                 l759 018C                   l599 00A3                   l768 01EB                   l769 01F2  
                 _RA0 0028                   _RA1 0029                   _RA2 002A                   _RC3 003B  
                 _RC4 003C                   _RC5 003D                   _PR2 0092                   fsr0 0004  
        ___awmod@sign 0076       send_config@data 0078                  l2301 0130                  l2311 0150  
                l2303 0134                  l2241 00A5                  l2321 0170                  l2313 0157  
                l2305 013B                  l2401 05E3                  l2243 00AE                  l2251 0178  
                l2323 0177                  l2315 015E                  l2307 0140                  l2331 0FE2  
                l2411 0629                  l2403 05F1                  l2245 00AF                  l2261 0195  
                l2253 017F                  l2309 0146                  l2317 0166                  l2333 0FEF  
                l2325 0FDB                  l2341 00F5                  l2421 066E                  l2413 0636  
                l2405 05FF                  l2501 03A5                  l2247 004E                  l2271 01B9  
                l2263 01A3                  l2255 0183                  l2319 016A                  l2335 0FF2  
                l2327 0FDF                  l2343 00FB                  l2351 005E                  l2431 06B3  
                l2423 067C                  l2415 0644                  l2407 060D                  l2503 03AC  
                l2511 0408                  l2249 0056                  l2273 01CA                  l2265 01A7  
                l2281 01E1                  l2257 018C                  l2329 0FE1                  l2345 0101  
                l2337 00D6                  l2353 0060                  l2361 0FA9                  l2441 06F8  
                l2433 06C0                  l2425 068A                  l2417 0652                  l2409 061B  
                l2521 0454                  l2513 040F                  l2505 03B2                  l2601 0261  
                l2283 01E5                  l2275 01D0                  l2267 01AE                  l2259 0190  
                l2291 0113                  l2347 0107                  l2339 00F0                  l2355 0061  
                l2363 0FBE                  l2371 0080                  l2451 073C                  l2443 0705  
                l2435 06CE                  l2427 0697                  l2419 0660                  l2531 049E  
                l2523 0462                  l2515 0424                  l2507 03BA                  l2611 02A7  
                l2603 026F                  l2285 01EB                  l2277 01D2                  l2269 01B3  
                l2293 0117                  l2357 006E                  l2349 005A                  l2365 0FC4  
                l2373 0081                  l2461 0782                  l2453 074A                  l2445 0713  
                l2437 06DC                  l2429 06A5                  l2381 055D                  l2533 04A4  
                l2541 0523                  l2525 046F                  l2517 043C                  l2509 03C8  
                l2621 02D0                  l2613 02B4                  l2605 027D                  l2287 01F2  
                l2279 01D9                  l2295 0120                  l2359 0071                  l2367 0FCC  
                l2375 008D                  l2471 07C6                  l2463 078F                  l2455 0758  
                l2447 0721                  l2439 06EA                  l2391 059E                  l2383 056F  
                l2535 04BC                  l2527 0485                  l2519 0447                  l2543 0531  
                l2631 02F2                  l2623 02D6                  l2615 02BA                  l2607 028B  
                l2551 01F6                  l2297 0124                  l2289 010E                  l2369 0FD1  
                l2377 0092                  l2473 07D4                  l2465 079D                  l2457 0766  
                l2449 072E                  l2393 05AC                  l2385 0575                  l2545 0538  
                l2537 04E3                  l2529 0496                  l2481 0365                  l2633 02F9  
                l2625 02DE                  l2641 0319                  l2617 02BF                  l2609 0299  
                l2561 01FE                  l2553 01F8                  l2299 012A                  l2379 0096  
                l2475 07E2                  l2467 07AB                  l2459 0774                  l2395 05BA  
                l2387 0582                  l2547 054D                  l2539 050A                  l2491 0380  
                l2483 036B                  l2651 034F                  l2643 0320                  l2635 0300  
                l2627 02E4                  l2619 02C5                  l2571 0212                  l2563 0201  
                l2555 01FA                  l2477 07F0                  l2469 07B8                  l2397 05C7  
                l2389 0590                  l2493 0386                  l2485 036F                  l2653 0350  
                l2645 0335                  l2637 0301                  l2629 02EB                  l2581 022A  
                l2573 0218                  l2565 0202                  l2557 01FC                  l2549 01F3  
                l2399 05D5                  l2495 0391                  l2487 0374                  l2479 035F  
                l2647 0343                  l2639 030B                  l2591 023B                  l2583 022E  
                l2575 021E                  l2567 0206                  l2559 01FD                  l2497 0397  
                l2489 037A                  l2649 0349                  l2593 0241                  l2585 0232  
                l2577 0224                  l2569 020C                  l2499 039F                  l2595 0247  
                l2587 0234                  l2579 0228                  l2597 024D                  l2589 0236  
                l2599 0253                  STR_1 0027                  STR_2 0045                  STR_3 004A  
                STR_4 0018                  STR_5 0009                  STR_6 0015                  STR_7 0034  
                STR_8 004A                  STR_9 003D                  _BRGH 04C2                  _CREN 00C4  
                u2420 00AD                  u2500 01B7                  u2421 00AC                  u2501 01B6  
                u2430 00CB                  u2440 00D3                  u2520 01CA                  u2600 0144  
                u2441 00D2                  u2521 01C9                  u2601 0143                  u2450 0055  
                u2610 0150                  u2435 00BE                  u2451 0054                  u2515 01BA  
                u2611 014F                  u2436 00BF                  u2540 01DF                  u2460 0183  
                u2700 0397                  u2437 00C4                  u2541 01DE                  u2525 01C6  
                u2461 0182                  u2701 0396                  u2438 00C5                  u2550 01E5  
                u2470 0190                  u2630 0164                  u2710 039F                  u2439 00CA  
                u2535 01D3                  u2471 018F                  u2631 0163                  u2615 014C  
                u2711 039E                  u2480 01A3                  u2640 016A                  u2560 0117  
                u2800 0485                  u2720 03A5                  u2481 01A2                  u2625 0158  
                u2561 0116                  u2801 0484                  u2721 03A4                  u2570 0124  
                u2810 0537                  u2730 03BA                  u2571 0123                  u2811 0536  
                u2731 03B9                  u2580 0130                  u2660 0FC4                  u2820 054C  
                u2740 040E                  u2581 012F                  u2661 0FC3                  u2821 054B  
                u2805 0481                  u2741 040D                  u2670 0096                  u2750 0423  
                u2830 02D0                  u2495 01A8                  u2655 00E5                  u2751 0422  
                u2831 02CF                  u2680 00A2                  u2760 0447                  u2840 02D6  
                u2681 00A1                  u2761 0446                  u2841 02D5                  u2770 0454  
                u2690 0391                  u2850 02DE                  u2595 0135                  u2771 0453  
                u2691 0390                  u2851 02DD                  u2780 0462                  u2860 02E4  
                u2781 0461                  u2861 02E3                  u2790 046F                  u2870 031F  
                u2791 046E                  u2775 0450                  u2871 031E                  u2880 0334  
                u2881 0333                  u2795 046B                  _SPEN 00C7                  _TXEN 04C5  
                _TXIF 0064                  _main 01F3                  _mode 002A                  btemp 007E  
        lcd_goto@data 007A                  start 0000                 ?_main 0070       __end_of___awdiv 01F3  
     __end_of___awmod 0178       ___awdiv@divisor 0077                 _T2CON 0012       ___awdiv@counter 0020  
               _SPBRG 0099                 _PORTB 0006                 _TRISA 0085                 _TRISB 0086  
               _TRISC 0087                 _TXREG 0019       __end_of_lcd_clr 0FBD                 _delay 00A5  
               _mode1 055D                 _mode2 035F                 pclath 000A                 status 0003  
               wtemp0 007E       mode2@value_temp 0026          __end_of_main 035F                ??_main 0029  
              ?_delay 0070          ?_send_config 0070                _ADCON1 009F                ?_mode1 0070  
              ?_mode2 0070                _CCPR1L 0015                _CCPR2L 001B      ___awdiv@dividend 0079  
        ?_send_string 0070      __end_of_lcd_goto 0FDA             ??___awdiv 007B             ??___awmod 0074  
    ___awdiv@quotient 0022       ___awmod@divisor 0070       ___awmod@counter 0075             ??_lcd_clr 0079  
    __end_of_send_cmd 010E          mode2@channel 0028        __pcstackCOMMON 0070         __end_of_delay 00D5  
       __end_of_mode1 0800         __end_of_mode2 055D               ??_delay 0074               ??_mode1 007B  
             ??_mode2 007C            __pbssBANK0 002A            __pmaintext 01F3    __size_of_send_char 0026  
             _CCP1CON 0017               _CCP2CON 001D    __size_of_uart_send 000C    send_cmd@lower_byte 007A  
         send_cmd@num 0078             ?_lcd_goto 0070  __size_of_send_config 0026  __size_of_send_string 0026  
           ?_send_cmd 0071               ___awdiv 0178               ___awmod 010E               _lcd_clr 0FA9  
    ___awmod@dividend 0072            ??_lcd_goto 0079  end_of_initialization 0FA5     __end_of_send_char 007F  
   __end_of_uart_send 0059            ??_send_cmd 0075         send_char@data 0078   send_cmd@higher_byte 0079  
 start_initialization 0FA4            mode2@value 0024         __pcstackBANK0 0020     __size_of_lcd_goto 001D  
   __size_of_send_cmd 0039              ?___awdiv 0077             __ptext270 0FDA             __ptext262 0000  
           __ptext271 010E             __ptext263 035F             __ptext272 0178             __ptext264 055D  
           __ptext273 004D             __ptext265 007F             __ptext274 00A5             __ptext266 0FBD  
           __ptext275 0000             __ptext267 0FA9              ?___awmod 0070             __ptext268 0059  
           __ptext269 00D5             __pstrings 0003              ?_lcd_clr 0070         ??_send_config 0078  
      __size_of_delay 0030        __size_of_mode1 02A3        __size_of_mode2 01FE             delay@data 0070  
       ??_send_string 0079             _send_char 0059          send_cmd@data 0071          send_cmd@ramp 0073  
           _uart_send 004D           __stringbase 0008   __end_of_send_config 1000            ?_send_char 0070  
        send_string@s 007A   __end_of_send_string 00A5            ?_uart_send 0070      __size_of___awdiv 007B  
    __size_of___awmod 006A      __size_of_lcd_clr 0014              _lcd_goto 0FBD         __size_of_main 016C  
            _send_cmd 00D5           _send_config 0FDA           _send_string 007F           ??_send_char 0078  
           stringcode 0003           ??_uart_send 0070         uart_send@data 0070              stringdir 0003  
            stringtab 0003  
